(lp1
F7.1366046530017905e-312
aF7.1366046530017905e-312
aF7.6599443665581023e-319
aF7.6599443665581023e-319
aF0
aF0
aF0
aF0
aF0
aF0
aF0
aF0
aF0
aF0
aF0
aF0
aF0
aF0
aF0
aF0
aF0
aF0
aF0
aF0
aF0
aF0
aF0
aF0
aF0
aF0
aF0
aF0
aF0
aF0
aF0
aF0
aF0
aF0
aF0
aF0
aF0
aF0
aF0
aF0
aF0
aF0
aF0
aF0
aF0
aF0
aF0
aF0
aF0
aF0
aF0
aF0
aF0
aF0
aF0
aF0
aF0
aF0
aF0
aF0
aF0
aF0
aF0
aF0
aF0
aF0
aF0
aF0
aF0
aF0
aF0
aF0
aF0
aF0
aF0
aF0
aF0
aF0
aF0
aF0
aF0
aF0
aF0
aF0
aF0
aF0
aF0
aF0
aF0
aF0
aF0
aF0
aF0
aF0
aF0
aF0
aF0
aF0
aF0
aF0
aF0
aF0
aF0
aF0
aF0
aF0
aF0
aF0
aF0
aF0
aF0
aF0
aF0
aF0
aF0
aF0
aF0
aF0
aF0
aF0
aF0
aF0
aF0
aF0
aF0
aF0
aF0
aF0
aF0
aF0
aF0
aF0
aF0
aF0
aF0
aF0
aF0
aF0
aF0
aF0
aF0
aF0
aF0
aF0
aF0
aF0
aF0
aF0
aF0
aF0
aF0
aF0
aF0
aF0
aF0
aF0
aF0
aF0
aF0
aF0
aF0
aF0
aF0
aF0
aF0
aF0
aF0
aF0
aF0
aF0
aF0
aF0
aF0
aF0
aF0
aF0
aF0
aF0
aF0
aF0
aF0
aF0
aF0
aF0
aF0
aF0
aF0
aF0
aF0
aF0
aF0
aF0
aF0
aF0
aF0
aF0
aF0
aF0
aF0
aF0
aF0
aF0
aF0
aF0
aF0
aF0
aF0
aF0
aF0
aF0
aF0
aF0
aF0
aF0
aF0
aF0
aF0
aF0
aF0
aF0
aF0
aF0
aF0
aF0
aF0
aF0
aF0
aF0
aF0
aF0
aF0
aF0
aF0
aF0
aF0
aF0
aF0
aF0
aF0
aF0
aF0
aF0
aF0
aF0
aF0
aF0
aF0
aF0
aF0
aF0
aF0
aF0
aF0
aF0
aF0
aF0
aF0
aF0
aF0
aF0
aF0
aF0
aF0
aF0
aF0
aF0
aF0
aF0
aF0
aF0
aF0
aF0
aF0
aF0
aF0
aF0
aF0
aF0
aF0
aF0
aF0
aF0
aF0
aF0
aF0
aF0
aF0
aF0
aF0
aF0
aF0
aF0
aF0
aF0
aF0
aF0
aF0
aF0
aF0
aF0
aF0
aF0
aF0
aF0
aF0
aF0
aF0
aF0
aF0
aF0
aF0
aF0
aF0
aF0
aF0
aF0
aF0
aF0
aF0
aF0
aF0
aF0
aF0
aF0
aF0
aF0
aF0
aF0
aF0
aF0
aF0
aF0
aF0
aF0
aF0
aF0
aF0
aF0
aF0
aF0
aF0
aF0
aF0
aF0
aF0
aF0
aF0
aF0
aF0
aF0
aF0
aF0
aF0
aF0
aF0
aF0
aF0
aF0
aF0
aF0
aF0
aF0
aF0
aF0
aF0
aF0
aF0
aF0
aF0
aF0
aF0
aF0
aF0
aF0
aF0
aF0
aF0
aF0
aF0
aF0
aF0
aF0
aF0
aF0
aF0
aF0
aF0
aF0
aF0
aF0
aF0
aF0
aF0
aF0
aF0
aF0
aF0
aF0
aF0
aF0
aF0
aF0
aF0
aF0
aF0
aF0
aF0
aF0
aF0
aF0
aF0
aF0
aF0
aF0
aF0
aF0
aF0
aF0
aF0
aF0
aF0
aF0
aF0
aF0
aF0
aF0
aF0
aF0
aF0
aF0
aF0
aF0
aF0
aF0
aF0
aF0
aF0
aF0
aF0
aF0
aF0
aF0
aF0
aF0
aF0
aF0
aF0
aF0
aF0
aF0
aF0
aF0
aF0
aF0
aF0
aF0
aF0
aF0
aF0
aF0
aF0
aF0
aF0
aF0
aF0
aF0
aF0
aF0
aF0
aF0
aF0
aF0
aF0
aF0
aF0
aF0
aF0
aF0
aF0
aF0
aF0
aF0
aF0
aF0
aF0
aF0
aF0
aF0
aF0
aF0
aF0
aF0
aF0
aF0
aF0
aF0
aF0
aF0
aF0
aF0
aF0
aF0
aF0
aF0
aF0
aF0
aF0
aF0
aF0
aF0
aF0
aF0
aF0
aF0
aF0
aF0
aF0
aF0
aF0
aF0
aF0
aF0
aF0
aF0
aF0
aF0
aF0
aF0
aF0
aF0
aF0
aF0
aF0
aF0
aF0
aF0
aF0
aF0
aF0
aF0
aF0
aF0
aF0
aF0
aF0
aF0
aF0
aF0
aF0
aF0
aF0
aF0
aF0
aF0
aF0
aF0
aF0
aF0
aF0
aF0
aF0
aF0
aF0
aF0
aF0
aF0
aF0
aF0
aF0
aF0
aF0
aF0
aF0
aF0
aF0
aF0
aF0
aF0
aF0
aF0
aF0
aF0
aF0
aF0
aF0
aF0
aF0
aF0
aF0
aF0
aF0
aF0
aF0
aF0
aF0
aF0
aF0
aF0
aF0
aF0
aF0
aF0
aF0
aF0
aF0
aF0
aF0
aF0
aF0
aF0
aF0
aF0
aF0
aF0
aF0
aF0
aF0
aF0
aF0
aF0
aF0
aF0
aF0
aF0
aF0
aF0
aF0
aF0
aF0
aF0
aF0
aF0
aF0
aF0
aF0
aF0
aF0
aF0
aF0
aF0
aF0
aF0
aF0
aF0
aF0
aF0
aF0
aF0
aF0
aF0
aF0
aF0
aF0
aF0
aF0
aF0
aF0
aF0
aF0
aF0
aF0
aF0
aF0
aF0
aF0
aF0
aF0
aF0
aF0
aF0
aF0
aF0
aF0
aF0
aF0
aF0
aF0
aF0
aF0
aF0
aF0
aF0
aF0
aF0
aF0
aF0
aF0
aF0
aF0
aF0
aF0
aF0
aF0
aF0
aF0
aF0
aF0
aF0
aF0
aF0
aF0
aF0
aF0
aF0
aF0
aF0
aF0
aF0
aF0
aF0
aF0
aF0
aF0
aF0
aF0
aF0
aF0
aF0
aF0
aF0
aF0
aF0
aF0
aF0
aF0
aF0
aF0
aF0
aF0
aF0
aF0
aF0
aF0
aF0
aF0
aF0
aF0
aF0
aF0
aF0
aF0
aF0
aF0
aF0
aF0
aF0
aF0
aF0
aF0
aF0
aF0
aF0
aF0
aF0
aF0
aF0
aF0
aF0
aF0
aF0
aF0
aF0
aF0
aF0
aF0
aF0
aF0
aF0
aF0
aF0
aF0
aF0
aF0
aF0
aF0
aF0
aF0
aF0
aF0
aF0
aF0
aF0
aF0
aF0
aF0
aF0
aF0
aF0
aF0
aF0
aF0
aF0
aF0
aF0
aF0
aF0
aF0
aF0
aF0
aF0
aF0
aF0
aF0
aF0
aF0
aF0
aF0
aF0
aF0
aF0
aF0
aF0
aF0
aF0
aF0
aF0
aF0
aF0
aF0
aF0
aF0
aF0
aF0
aF0
aF0
aF0
aF0
aF0
aF0
aF0
aF0
aF0
aF0
aF0
aF0
aF0
aF0
aF0
aF0
aF0
aF0
aF0
aF0
aF0
aF0
aF0
aF0
aF0
aF0
aF0
aF0
aF0
aF0
aF0
aF0
aF0
aF0
aF0
aF0
aF0
aF0
aF0
aF0
aF0
aF0
aF0
aF0
aF0
aF0
aF0
aF0
aF0
aF0
aF0
aF0
aF0
aF0
aF0
aF0
aF0
aF0
aF0
aF0
aF0
aF0
aF0
aF0
aF0
aF0
aF0
aF0
aF0
aF0
aF0
aF0
aF0
aF0
aF0
aF0
aF0
aF0
aF0
aF0
aF0
aF0
aF0
aF0
aF0
aF0
aF0
aF0
aF0
aF0
aF0
aF0
aF0
aF0
aF0
aF0
aF0
aF0
aF0
aF0
aF0
aF0
aF0
aF0
aF0
aF0
aF0
aF0
aF0
aF0
aF0
aF0
aF0
aF0
aF0
aF0
aF0
aF0
aF0
aF0
aF0
aF0
aF0
aF0
aF0
aF0
aF0
aF0
aF0
aF0
aF0
aF0
aF0
aF0
aF0
aF0
aF0
aF0
aF0
aF0
aF0
aF0
aF0
aF0
aF0
aF0
aF0
aF0
aF0
aF0
aF0
aF0
aF0
aF0
aF0
aF0
aF0
aF0
aF0
aF0
aF0
aF0
aF0
aF0
aF0
aF0
aF0
aF0
aF0
aF0
aF0
aF0
aF0
aF0
aF0
aF0
aF0
aF0
aF0
aF0
aF0
aF0
aF0
aF0
aF0
aF0
aF0
aF0
aF0
aF0
aF0
aF0
aF0
aF0
aF0
aF0
aF0
aF0
aF0
aF0
aF0
aF0
aF0
aF0
aF0
aF0
aF0
aF0
aF0
aF0
aF0
aF0
aF0
aF0
aF0
aF0
aF0
aF0
aF0
aF0
aF0
aF0
aF0
aF0
aF0
aF0
aF0
aF0
aF0
aF0
aF0
aF0
aF0
aF0
aF0
aF0
aF0
aF0
aF0
aF0
aF0
aF0
aF0
aF0
aF0
aF0
aF0
aF0
aF0
aF0
aF0
aF0
aF0
aF0
aF0
aF0
aF0
aF0
aF0
aF0
aF0
aF0
aF0
aF0
aF0
aF0
aF0
aF0
aF0
aF0
aF0
aF0
aF0
aF0
aF0
aF0
aF0
aF0
aF0
aF0
aF0
aF0
aF0
aF0
aF0
aF0
aF0
aF0
aF0
aF0
aF0
aF0
aF0
aF0
aF0
aF0
aF0
aF0
aF0
aF0
aF0
aF0
aF0
aF0
aF0
aF0
aF0
aF0
aF0
aF0
aF0
aF0
aF0
aF0
aF0
aF0
aF0
aF0
aF0
aF0
aF0
aF0
aF0
aF0
aF0
aF0
aF0
aF0
aF0
aF0
aF0
aF0
aF0
aF0
aF0
aF0
aF0
aF0
aF0
aF0
aF0
aF0
aF0
aF0
aF0
aF0
aF0
aF0
aF0
aF0
aF0
aF0
aF0
aF0
aF0
aF0
aF0
aF0
aF0
aF0
aF0
aF0
aF0
aF0
aF0
aF0
aF0
aF0
aF0
aF0
aF0
aF0
aF0
aF0
aF0
aF0
aF0
aF0
aF0
aF0
aF0
aF0
aF0
aF0
aF0
aF0
aF0
aF0
aF0
aF0
aF0
aF0
aF0
aF0
aF0
aF0
aF0
aF0
aF0
aF0
aF0
aF0
aF0
aF0
aF0
aF0
aF0
aF0
aF0
aF0
aF0
aF0
aF0
aF0
aF0
aF0
aF0
aF0
aF0
aF0
aF0
aF0
aF0
aF0
aF0
aF0
aF0
aF0
aF0
aF0
aF0
aF0
aF0
aF0
aF0
aF0
aF0
aF0
aF0
aF0
aF0
aF0
aF0
aF0
aF0
aF0
aF0
aF0
aF0
aF0
aF0
aF0
aF0
aF0
aF0
aF0
aF0
aF0
aF0
aF0
aF0
aF0
aF0
aF0
aF0
aF0
aF0
aF0
aF0
aF0
aF0
aF0
aF0
aF0
aF0
aF0
aF0
aF0
aF0
aF0
aF0
aF0
aF0
aF0
aF0
aF0
aF0
aF0
aF0
aF0
aF0
aF0
aF0
aF0
aF0
aF0
aF0
aF0
aF0
aF0
aF0
aF0
aF0
aF0
aF0
aF0
aF0
aF0
aF0
aF0
aF0
aF0
aF0
aF0
aF0
aF0
aF0
aF0
aF0
aF0
aF0
aF0
aF0
aF0
aF0
aF0
aF0
aF0
aF0
aF0
aF0
aF0
aF0
aF0
aF0
aF0
aF0
aF0
aF0
aF0
aF0
aF0
aF0
aF0
aF0
aF0
aF0
aF0
aF0
aF0
aF0
aF0
aF0
aF0
aF0
aF0
aF0
aF0
aF0
aF0
aF0
aF0
aF0
aF0
aF0
aF0
aF0
aF0
aF0
aF0
aF0
aF0
aF0
aF0
aF0
aF0
aF0
aF0
aF0
aF0
aF0
aF0
aF0
aF0
aF0
aF0
aF0
aF0
aF0
aF0
aF0
aF0
aF0
aF0
aF0
aF0
aF0
aF0
aF0
aF0
aF0
aF0
aF0
aF0
aF0
aF0
aF0
aF0
aF0
aF0
aF0
aF0
aF0
aF0
aF0
aF0
aF0
aF0
aF0
aF0
aF0
aF0
aF0
aF0
aF0
aF0
aF0
aF0
aF0
aF0
aF0
aF0
aF0
aF0
aF0
aF0
aF0
aF0
aF0
aF0
aF0
aF0
aF0
aF0
aF0
aF0
aF0
aF0
aF0
aF0
aF0
aF0
aF0
aF0
aF0
aF0
aF0
aF0
aF0
aF0
aF0
aF0
aF0
aF0
aF0
aF0
aF0
aF0
aF0
aF0
aF0
aF0
aF0
aF0
aF0
aF0
aF0
aF0
aF0
aF0
aF0
aF0
aF0
aF0
aF0
aF0
aF0
aF0
aF0
aF0
aF0
aF0
aF0
aF0
aF0
aF0
aF0
aF0
aF0
aF0
aF0
aF0
aF0
aF0
aF0
aF0
aF0
aF0
aF0
aF0
aF0
aF0
aF0
aF0
aF0
aF0
aF0
aF0
aF0
aF0
aF0
aF0
aF0
aF0
aF0
aF0
aF0
aF0
aF0
aF0
aF0
aF0
aF0
aF0
aF0
aF0
aF0
aF0
aF0
aF0
aF0
aF0
aF0
aF0
aF0
aF0
aF0
aF0
aF0
aF0
aF0
aF0
aF0
aF0
aF0
aF0
aF0
aF1.6616674201387568e-146
aF2.0461324932415464e-160
aF1.478130676867358e-148
aF8.6166163347997329e-160
aF2.8746586316899331e-159
aF1.1978301062462192e-158
aF3.4414475596397252e-156
aF2.4378440607443325e-153
aF7.904383583076963e-155
aF1.0617296348272792e-154
aF1.4762085570761532e-152
aF4.0399874396485087e-155
aF1.2013145907874942e-156
aF2.5372906328293899e-160
aF1.5770016408865999e-149
aF1.0840036112312399e-157
aF4.7704340751681492e-157
aF1.0565594409504023e-157
aF6.6975698795178397e-154
aF1.0015755083349398e-149
aF1.37233185862741e-152
aF3.7468179172702136e-154
aF7.5685059979582624e-155
aF3.0307203685341117e-151
aF3.9863222662266912e-152
aF2.6029202310477974e-152
aF3.7553595298182946e-155
aF1.4513443443760236e-156
aF3.4929747602456575e-160
aF2.7884716025495501e-158
aF7.7534714826787374e-158
aF8.5224735798925444e-156
aF6.764350693867877e-159
aF2.567859532610368e-155
aF2.2379333237435801e-157
aF4.1669192968762477e-157
aF5.4292586213556264e-150
aF2.1062732574037867e-154
aF2.9143344733693461e-152
aF2.2984646790933374e-154
aF1.5826138195282993e-161
aF4.7491468554484432e-158
aF5.7400047471722107e-160
aF8.0672395508408527e-158
aF2.5943683397842554e-160
aF1.01325007335553e-158
aF1.204747681751464e-152
aF6.0074466447516548e-160
aF7.255066848690899e-186
aF3.4875167623358727e-186
aF1.098013500404566e-185
aF1.2180380608425214e-185
aF2.8338932461716557e-184
aF8.1953842964929887e-184
aF1.2681776348612202e-09
aF1.7837168875225267e-17
aF7.7881827047904942e-18
aF3.1662041170253926e-16
aF2.729492333234402e-16
aF2.0917905473192544e-16
aF6.1994941644247517e-15
aF1.8922806802214804e-17
aF1.4552708136821209e-14
aF1.5865711249807797e-16
aF3.6353452480958e-11
aF4.5012859108221826e-14
aF1.8524198216637696e-13
aF4.9939858577291744e-15
aF2.6658259696690428e-16
aF6.0047947361627187e-17
aF4.5905873907472453e-15
aF1.2908010875908543e-15
aF2.1457332460585189e-13
aF1.7681446335991301e-15
aF1.467821125259987e-13
aF1.8315745867088864e-18
aF1.3635949504855703e-16
aF8.5873733893132216e-15
aF9.0867133864080113e-16
aF2.5713440171516427e-15
aF5.2133439243821158e-17
aF4.6718200790354316e-15
aF4.5135792545135241e-15
aF3.5032637544221058e-11
aF5.3982477368098259e-14
aF9.3863893356731126e-13
aF8.148390009405354e-14
aF1.7474946942380055e-17
aF7.9440799821872969e-14
aF7.3942098198862913e-13
aF3.0426642358997794e-12
aF1.1499826857753208e-15
aF8.3428633059272425e-14
aF7.6251622775792284e-14
aF1.7146336409092274e-15
aF9.7601337085500924e-11
aF5.87505678961413e-13
aF4.4585058970735515e-11
aF1.1610836984731877e-10
aF6.6498560823479337e-18
aF3.3621472698582041e-11
aF5.2983797373908683e-17
aF4.1212406853676178e-182
aF1.030461782394954e-177
aF2.9954849319338455e-176
aF9.5652800995561453e-181
aF2.7564122890267289e-181
aF4.5993037414581627e-180
aF6.2064014612145355e-61
aF2.4485236461082988e-72
aF8.6164518753523563e-73
aF2.7436564031396431e-71
aF1.0535169411739498e-71
aF2.5568201922052672e-71
aF1.7638172943900544e-60
aF3.7069981735743467e-69
aF3.0861123661533755e-71
aF5.8213813374768524e-70
aF4.3562121208058001e-68
aF3.0019296865278848e-67
aF1.6526529866794705e-71
aF5.7303324759234217e-73
aF5.9086065168787951e-72
aF1.2034217274569965e-67
aF2.7424229572843246e-67
aF1.8069262270334371e-69
aF2.7620655825302725e-68
aF1.4997570941972763e-70
aF4.4553092165651842e-71
aF7.674582341515657e-73
aF8.8910272014617253e-69
aF9.4979956281485172e-72
aF7.6366641601800717e-70
aF4.2066568108484264e-67
aF7.5057647187843925e-64
aF4.6498853002416834e-68
aF2.6888194561552727e-69
aF1.0343985304165125e-68
aF9.5059616326307831e-68
aF4.0418684445778697e-68
aF3.0118897618095821e-71
aF1.504300286431033e-72
aF3.0683815819831712e-71
aF7.1638535276900927e-71
aF3.4470700169968855e-65
aF3.0154461973590838e-67
aF1.4655186929967258e-67
aF4.7766321405911251e-69
aF9.8880009288847813e-71
aF1.2939874893837605e-68
aF8.1130106707886332e-13
aF1.1746413241662305e-12
aF1.3625465215085494e-09
aF2.1371710760795161e-15
aF1.0832429862871267e-16
aF1.1313370959290887e-13
aF7.4470526960712288e-14
aF2.561908156358456e-11
aF1.0722139245974867e-15
aF7.3899544316854429e-17
aF1.1554612411160273e-13
aF5.2920583273823613e-15
aF2.0672141386520328e-14
aF2.3359408756640988e-16
aF3.2475395924681895e-11
aF9.4190653721235921e-16
aF1.9571393747803139e-15
aF1.0290535983767987e-14
aF1.4849454652179927e-11
aF4.1472972290612222e-13
aF9.5108234650438303e-15
aF2.1938890279932469e-16
aF1.3029916441275861e-15
aF3.0343693125227627e-14
aF1.850333242425189e-12
aF3.4724892803319086e-16
aF1.3928790108339246e-18
aF3.9083993243169423e-16
aF5.3704232540569324e-16
aF6.0642262689581506e-18
aF1.7830487710175626e-16
aF1.5713380686675957e-16
aF3.8725677222199384e-14
aF1.6144881161728228e-16
aF2.6845640679544238e-15
aF2.4049316138382494e-12
aF8.7455319841114418e-12
aF7.4474432872587469e-17
aF1.4674819276497746e-13
aF5.9785428968753561e-16
aF1.7290855148473763e-17
aF2.7952863909001849e-15
aF8.7166179575196827e-14
aF1.8790828095695719e-15
aF3.0595213292557994e-11
aF5.7499545437384477e-17
aF6.4718081731327022e-13
aF1.0494362911359375e-11
aF1.8644356400376642e-64
aF7.9436379974224747e-65
aF4.5603885247228628e-65
aF2.7764763416065774e-67
aF5.0792786386244509e-68
aF4.7576884679965243e-69
aF5.2565248080337264e-67
aF9.40114957107509e-66
aF7.1781717783272479e-63
aF1.0781139072720936e-67
aF1.6048877959322601e-68
aF5.4154748639224421e-67
aF7.8413647785856463e-67
aF5.643703462018216e-66
aF1.066725090541319e-66
aF8.3698963275896401e-69
aF6.2244817217104124e-68
aF9.5261901446580089e-68
aF1.3550738953684112e-68
aF6.1009315618693384e-65
aF1.7487589762397068e-61
aF5.0388935655782298e-70
aF7.0230042897281758e-65
aF2.6816449127635034e-69
aF2.0107325971939043e-63
aF1.9990148615683781e-64
aF1.375610768859465e-68
aF7.6072053616688811e-62
aF1.257230802895268e-66
aF1.3975044327913693e-63
aF2.2704140646003014e-63
aF1.5879484728525519e-65
aF9.1065101923858736e-69
aF1.5107347623096114e-65
aF6.2777665826601735e-70
aF4.5826213862649798e-68
aF2.4879733560475699e-64
aF7.2400290879714735e-69
aF1.9566459964381863e-68
aF2.9380474699378452e-67
aF4.3370012016092138e-67
aF1.9336216738055733e-63
aF7.1539037311238564e-69
aF2.6197567669728958e-65
aF3.5253321565168472e-68
aF3.7585562103266616e-69
aF1.8864526485551e-68
aF2.7292045292014943e-67
aF2.1777822808658789e-69
aF5.0265179921632005e-66
aF1.5067774568571309e-70
aF4.8417683604674051e-68
aF9.0881010129952448e-68
aF1.5539053672457604e-68
aF1.3581780674376296e-71
aF1.6461054449308215e-64
aF1.2076154433650798e-66
aF7.2584382673621023e-62
aF3.2842140492329937e-63
aF5.0289232115810715e-68
aF3.9470061795884126e-65
aF3.1895984734146007e-65
aF3.0021249821216436e-66
aF7.9193082779263159e-66
aF2.7523213602732558e-67
aF1.503580776348764e-70
aF3.73253050277944e-45
aF6.2467043045370687e-53
aF3.4873111880266529e-53
aF2.4848486265474298e-53
aF5.3734143602560801e-55
aF4.8671053940787396e-54
aF3.7812002204872173e-13
aF5.1493589206374665e-26
aF4.0731362970101944e-27
aF7.5053741275968754e-27
aF6.8466626472794684e-25
aF3.8921795113195033e-25
aF6.9826500528283372e-26
aF7.0210102189287442e-27
aF9.1521682464635818e-25
aF8.1640342143369772e-27
aF1.6762529173778985e-25
aF4.3069667950322076e-26
aF2.0818818656148621e-26
aF4.5021596016363662e-27
aF1.6872819790675385e-26
aF8.5982585489864078e-25
aF2.3512356042700489e-24
aF8.4796318938511464e-25
aF3.5390953565191095e-25
aF1.4235198616231294e-26
aF9.5666574474279176e-27
aF3.8324396170602419e-28
aF1.5772791662040467e-24
aF5.2618800187889006e-27
aF8.4174456653121698e-20
aF1.6197097036270044e-10
aF1.213926574658126e-15
aF2.7771239006806193e-14
aF8.4904656599470296e-12
aF2.3616890578938734e-11
aF0.59522191065797669
aF4.3379982370089291e-08
aF1.1346673997384488e-07
aF1.1615359619534711e-08
aF1.6937267336615781e-06
aF1.2911197277701448e-09
aF5.5286229637169962e-05
aF1.8649392970952527e-06
aF4.1637534525142639e-11
aF5.8456288272493221e-07
aF8.2666671882149399e-07
aF2.4970186256532395e-06
aF0.010220805178080645
aF5.3655819790748067e-07
aF6.0615332455073716e-10
aF5.1946161048121962e-05
aF4.0890271911128819e-10
aF1.9092200033011886e-08
aF2.6606557757921661e-09
aF4.2340701449828808e-11
aF8.8729161048194647e-06
aF8.9808220597289144e-09
aF1.2373517671937173e-06
aF1.7780738727344443e-10
aF3.6540936250966417e-07
aF8.4509131628531479e-09
aF0.011076138206451288
aF3.6242647928288553e-10
aF0.051335913711203114
aF1.055089584639481e-07
aF4.5749329071001608e-08
aF9.3881778321633248e-09
aF1.7789167274022453e-09
aF2.1501017001294384e-09
aF2.6635338161212428e-09
aF2.4929174181843056e-10
aF9.099417878717793e-06
aF0.00018881794727525461
aF4.4909146869220459e-06
aF1.7243161908734777e-07
aF4.9201332871419765e-11
aF5.5894626805305833e-07
aF1.5071063757518827e-07
aF4.5725482451132112e-08
aF7.1666698957264028e-07
aF2.1066741273067647e-12
aF1.4524441669303493e-05
aF5.4328150569051282e-08
aF9.5715090011255036e-11
aF0.077138264771457091
aF6.2128462158085739e-10
aF4.1174272819315913e-06
aF0.00013414237612362193
aF2.0146899026463846e-05
aF4.2118989557335306e-08
aF1.0311915711926842e-07
aF8.625075717624125e-11
aF3.1690307637771638e-11
aF1.1715474308124732e-10
aF3.0960724414350726e-12
aF6.7340901555507298e-12
aF7.4214792520042923e-07
aF6.6668570777204082e-08
aF0.00024712293285616212
aF4.2309248580518192e-12
aF6.0136652676055518e-10
aF4.5600390483971887e-09
aF7.2952155112815164e-12
aF7.6163020248518554e-11
aF7.8474497781385506e-12
aF1.6961011169330661e-11
aF1.3722187927573391e-11
aF4.3157242606049689e-12
aF1.2551236662257654e-11
aF4.1987730360898491e-11
aF2.8262869967305245e-10
aF0.014725390556565804
aF2.0688587331257907e-07
aF7.6396758238101421e-07
aF9.6364910402698698e-11
aF1.5505647847209392e-05
aF3.8533979178851962e-08
aF5.9631967746921019e-10
aF8.3395843956951871e-08
aF1.6415930888434476e-10
aF5.8693829386796656e-12
aF4.9019810756378721e-12
aF7.6971955155298311e-12
aF2.9557165818152834e-06
aF0.00022458890495103843
aF4.3493562175933213e-10
aF1.7535180214981445e-09
aF5.9223183233037527e-08
aF2.8557971888190204e-10
aF1.4708122314591346e-10
aF4.3176566591116347e-11
aF3.6980865272696694e-12
aF3.8223561971930132e-10
aF3.2147916050094819e-13
aF3.3924386443217355e-12
aF2.1580574258962431e-13
aF1.5630842601524224e-13
aF1.6630036531486854e-15
aF1.1099470890547732e-10
aF0.00090361318276244911
aF1.5264920331113059e-12
aF4.7262767135477456e-14
aF8.303619170297191e-10
aF4.008709308500723e-14
aF2.7636896195731081e-08
aF4.4434167427768209e-15
aF3.3571929290060081e-12
aF2.9969445095293056e-14
aF8.3052226499091052e-06
aF2.5385343574001696e-09
aF4.1620883006095835e-07
aF3.5753895008118583e-05
aF1.8600774646822055e-13
aF1.3265299025332482e-13
aF2.6106909399363039e-13
aF4.0624361542153059e-13
aF7.5984067812342764e-13
aF8.211850798661492e-13
aF7.702889923895218e-12
aF3.5437104997610933e-10
aF2.4929790904770715e-12
aF3.2130956169584188e-13
aF6.6484273408988564e-14
aF1.0152739524297984e-05
aF1.6427340262596173e-12
aF1.9050571235394881e-12
aF3.3100650186173788e-14
aF7.7452896251717926e-14
aF1.9246277977772091e-14
aF1.5469055620168275e-09
aF9.3217156579925773e-16
aF1.4775036752242374e-15
aF3.5243659572635143e-07
aF3.0004495515015028e-11
aF1.5868075354363825e-11
aF7.8302020935950127e-08
aF1.5227505806835062e-13
aF2.5684556981071047e-12
aF4.7578220912975171e-14
aF1.4899923145093379e-12
aF1.2101337286530218e-08
aF2.762168369684882e-10
aF9.7964586889892225e-07
aF1.4340658236861032e-07
aF3.6181386784141063e-05
aF1.4628770631232518e-09
aF1.4373344552026971e-12
aF1.4131383590075318e-16
aF6.0602484060747481e-17
aF1.5127802266863478e-15
aF5.2997159704007973e-14
aF4.7310871523834886e-15
aF5.1467995204876809e-11
aF6.6864585881045121e-12
aF6.8864618335444135e-15
aF8.6229685809546229e-16
aF8.0309762426944889e-09
aF7.3145497750636354e-13
aF5.3638345974464395e-11
aF2.7767641456394848e-17
aF1.3108137465933977e-14
aF3.7364261359391541e-12
aF3.3290189699274405e-13
aF7.6504273601823351e-12
aF8.0334122982587427e-13
aF2.2169441867722426e-16
aF4.1437716296581035e-13
aF3.9301388075169315e-14
aF2.8579043254885231e-12
aF2.6687965184372683e-11
aF4.3550917408205523e-14
aF0.00011055066839756264
aF3.5399279324714502e-12
aF2.6599259869944361e-14
aF8.2219136610977988e-13
aF7.131732541874506e-16
aF1.778454185206501e-14
aF5.3461346494226183e-11
aF4.9935130368179692e-14
aF1.6898002643554807e-12
aF1.3895589857400255e-18
aF2.2329070318831565e-16
aF2.5554634017644164e-13
aF1.4194803264469613e-10
aF5.8910813070178105e-17
aF1.4376119805201437e-13
aF2.4909233473848738e-14
aF3.2223978544506129e-13
aF8.3930851096696292e-10
aF5.4858121138219818e-14
aF5.3929439196319566e-12
aF0.0076872971125408985
aF9.3897093607670114e-10
aF5.01496471598505e-07
aF5.8352678820646473e-10
aF2.0764238677050775e-07
aF1.1881989498592736e-09
aF1.0112477795837295e-09
aF7.0802772922768008e-10
aF1.0966875461100988e-08
aF1.0639498373668525e-08
aF1.0935628166099584e-10
aF4.6018939777543321e-05
aF9.6913177085387786e-08
aF2.0386084735241036e-09
aF3.2668430201039243e-08
aF1.28263978751483e-12
aF3.5314582709315959e-08
aF3.9646238978885459e-10
aF1.4101061379465403e-10
aF2.812184599118049e-08
aF2.8073741602823065e-10
aF1.1178616999597337e-08
aF3.9560308917631602e-05
aF1.0742799464051453e-11
aF0.00077335924469771873
aF2.1623744863898582e-07
aF9.7060162716479912e-10
aF6.2031636658443244e-08
aF6.7400312530871803e-07
aF0.11551220435058146
aF9.5887361282381198e-10
aF1.722414628513195e-05
aF9.5133211929008511e-08
aF1.6535986285018817e-07
aF2.0296248762112001e-10
aF9.2918662682938689e-10
aF3.7644870291476516e-07
aF8.5901178063413052e-11
aF1.229211024548615e-08
aF3.8980075429858834e-08
aF0.00013658973827488315
aF0.0004568755399108107
aF1.8860723360830436e-11
aF1.7631491778850899e-10
aF4.4628024001362441e-08
aF3.8570674193047695e-09
aF8.3084296091329332e-11
aF1.933888920407559e-11
aF2.5706759006466786e-09
aF2.9696853561267658e-12
aF5.0085096826755494e-25
aF2.0769378034781271e-25
aF2.0469033969011205e-17
aF1.3520725104538029e-19
aF5.8156869291114653e-17
aF6.4859002920297169e-19
aF1.9564095859825837e-14
aF2.1331315409033476e-18
aF9.059300052273556e-22
aF1.0560043903155089e-18
aF3.4142500785299511e-23
aF1.076232902342733e-23
aF5.9521163194251561e-24
aF1.1255501791245527e-23
aF1.4028904796929269e-21
aF2.2405543961861318e-17
aF1.3014190006620546e-20
aF1.8289740716972561e-23
aF1.4769383458738832e-12
aF3.5817417469667485e-22
aF3.0104096267831994e-22
aF3.9951002892303743e-23
aF7.5556267674856444e-16
aF3.8597398853246262e-23
aF5.4633633992551846e-18
aF3.245309111213155e-24
aF3.4158124432800212e-18
aF1.9333030336262827e-20
aF6.2456558755600475e-24
aF6.4081212521364223e-25
aF9.310820219603929e-24
aF8.3042256145093897e-22
aF2.9327436527599751e-23
aF4.3502401871229664e-24
aF2.4504149297531209e-22
aF9.2319413571563091e-16
aF2.8135311108434386e-14
aF4.9445246789309005e-09
aF4.3743540535944433e-16
aF6.7395789896068964e-11
aF5.0153347497416456e-09
aF1.5418895488718655e-11
aF4.5841837510150493e-12
aF1.7029878562919282e-08
aF3.6017852421156749e-12
aF4.476452534268436e-14
aF7.3538555829864526e-16
aF6.5115456871048813e-16
aF1.3908027103108051e-16
aF6.947599633106369e-11
aF4.2502488431184762e-15
aF6.8179130801350857e-11
aF1.0173574480537406e-10
aF1.2637680659284561e-16
aF2.614822983551621e-15
aF3.5923493813224876e-15
aF3.083152096100611e-14
aF2.2134288660845849e-17
aF8.9183377484415693e-17
aF6.6424554072160224e-16
aF4.5542007380153478e-15
aF1.4719737263062262e-06
aF2.4274111645514302e-17
aF1.9530484460268405e-16
aF1.225860163308333e-10
aF3.5916504286711406e-14
aF3.4262247820420025e-13
aF1.3140001483863039e-11
aF1.3389157546637385e-08
aF3.4434005155773131e-15
aF1.2823622621973833e-14
aF1.5639990658284504e-12
aF3.001785784511431e-15
aF4.5206098958888403e-15
aF1.1036359577617265e-13
aF2.2813814539971756e-12
aF6.3892700879809702e-15
aF2.6176085154415489e-14
aF2.4563354698586497e-14
aF3.3185038440108494e-17
aF1.763899524113742e-14
aF1.9515477535695364e-15
aF8.2833289859772005e-17
aF2.6484343831090514e-12
aF5.1601001782941986e-12
aF6.7579881689975264e-12
aF3.788621453050051e-16
aF8.8784768898838586e-11
aF7.4698303295327782e-13
aF1.1330947562729178e-14
aF2.1178882058747027e-12
aF5.3602164896041713e-12
aF6.3587011881999925e-12
aF8.5892543942425821e-11
aF3.8264162898001032e-13
aF7.2872906216610959e-14
aF1.3259234583210497e-11
aF2.2458582133640012e-10
aF3.2760219130105866e-10
aF7.5810563095361274e-11
aF1.4441081286914881e-08
aF2.7810606487021777e-12
aF7.7763621820103578e-09
aF2.2293403176181938e-12
aF2.8062126654352151e-13
aF1.9371575519241531e-10
aF1.4148754619204385e-12
aF1.4607185328764444e-06
aF1.2159000880266359e-13
aF7.3303584394426355e-13
aF3.6381102225548058e-08
aF1.5205714930057767e-09
aF1.3288528922274313e-13
aF5.7332619098298038e-11
aF1.1893193298445214e-09
aF1.9676339432659824e-10
aF9.0330996065634987e-15
aF3.5361864800436502e-13
aF5.9008666441366716e-13
aF4.4167537548710188e-06
aF3.0121672871270289e-09
aF3.4320322562774605e-06
aF3.5813100409173869e-10
aF9.6514568499810678e-14
aF1.6439983082613187e-09
aF1.329140696260339e-11
aF3.4200781101963313e-12
aF3.1239688751961939e-12
aF2.1461443946769583e-09
aF8.707994115247914e-09
aF7.3252704752894448e-14
aF1.0211996318930577e-08
aF1.3497495207596195e-11
aF5.4166671949159168e-09
aF2.2430624027586126e-07
aF1.4298207142007149e-10
aF1.0501249650718239e-09
aF0.00055223735047167156
aF4.7600936874143953e-11
aF1.0003204771771533e-13
aF2.593032106774327e-07
aF1.0061084218532355e-12
aF2.2968509207659621e-12
aF8.4005268996633842e-15
aF7.0031046965957036e-15
aF3.9093038512775093e-10
aF1.5929130924202092e-14
aF7.6671816663837452e-10
aF8.7829567871048986e-15
aF5.0181922326398001e-16
aF3.7906771961422483e-12
aF6.4273013351866253e-12
aF0.00024862054169882801
aF1.0327950508045983e-12
aF2.2346132986496808e-13
aF1.6710621660701e-08
aF7.096795188022608e-12
aF2.2129252090269963e-13
aF3.6521612265899763e-16
aF3.0817541907979163e-14
aF5.8119763128300487e-09
aF5.3617274607769366e-14
aF5.3310557738413483e-12
aF1.7450175238119074e-15
aF1.10159049338499e-13
aF4.6821399093582639e-12
aF1.2402503649537161e-15
aF1.1979020572544462e-11
aF3.2033205585550196e-17
aF2.8911456912893575e-17
aF4.7623036112385079e-15
aF1.0692433758292611e-16
aF3.1847674771479367e-13
aF1.7910970052235159e-14
aF4.640572784034029e-14
aF8.4786862520287363e-13
aF2.1362768278344098e-15
aF9.5342589362948827e-15
aF5.0550311488519807e-10
aF2.7762707672973575e-05
aF5.6238655411785096e-20
aF2.0427507958548816e-11
aF3.4326489792051198e-15
aF4.7883601549321124e-13
aF2.1926041885606234e-10
aF1.5189063411010969e-14
aF1.1555023559778713e-11
aF2.2936234041112119e-13
aF7.1716036791476771e-14
aF1.3076479022314133e-13
aF7.2096760412151771e-15
aF7.6605210587650255e-15
aF2.6693618477876228e-14
aF6.8408140581821664e-15
aF2.598490104684112e-12
aF2.7802075153189157e-10
aF3.1016743413613107e-06
aF1.7545561717597041e-08
aF4.5246494310650083e-14
aF2.3331450650587103e-15
aF1.0607223207121024e-15
aF1.5151546099578359e-17
aF7.1120693591976353e-17
aF6.568870083230811e-08
aF1.1022791673208762e-12
aF2.1465966581572417e-16
aF2.9287041175838073e-06
aF1.4103733845485259e-07
aF3.4618919246916299e-12
aF1.5677919118335548e-15
aF8.5225044160389271e-14
aF7.5935243913903078e-14
aF6.5443861830027375e-09
aF6.5898797776330699e-07
aF5.9539356520617516e-12
aF6.4800105880705708e-14
aF2.382236210100388e-14
aF1.3805548309962001e-13
aF4.2368351194418869e-15
aF8.3159844649967598e-16
aF1.3214111022336761e-08
aF9.0103528092483334e-09
aF6.7299169970735679e-09
aF1.0875703254962025e-10
aF0.041107872317437934
aF1.1810552426138872e-09
aF1.5653866924156838e-15
aF4.2614218068245704e-16
aF3.7423363973292223e-12
aF1.531230520938821e-09
aF1.5628786858432028e-12
aF5.4797579504154603e-14
aF4.6368004954598466e-10
aF1.2274944790666301e-12
aF6.6402043685300664e-14
aF1.7282734963259582e-15
aF3.8039367390869227e-16
aF4.2805504962974685e-17
aF1.0008313293355643e-16
aF1.4558875366097803e-17
aF1.3692893588509575e-13
aF2.290313657732774e-17
aF7.2417456334534583e-08
aF0.0086917845809659361
aF8.5849373337489676e-10
aF1.7408032504729022e-07
aF0.061667564556815047
aF2.1305001897453349e-13
aF1.3858175333122259e-16
aF7.2494238339028168e-06
aF0.0010632508847155052
aF1.8422747295037746e-12
aF5.0076565492922885e-14
aF3.6917137236838575e-16
aF4.5999821366785878e-15
aF4.7206336987596631e-14
aF2.7515812927600648e-14
aF1.1339273322252578e-13
aF3.8656912615765376e-14
aF5.0421416396639019e-15
aF0.0015869206013064533
aF6.7713504990968106e-12
aF8.3162517115987456e-15
aF8.3334685599959005e-10
aF8.2150577578853191e-06
aF1.8550717302527042e-13
aF1.2176166335086207e-13
aF4.6714500452788363e-10
aF1.4125113573644114e-08
aF1.3808323563136467e-10
aF-0.0039598134590528031
aF-3.840035587785912e-08
aF3.3222144602922658e-06
aF1.0271633426035229e-06
aF-1.6933464211895214e-06
aF5.4036440624268447e-11
aF1.628559677638915e-05
aF-1.8577750324189443e-06
aF1.5606893194500122e-05
aF-4.1736929703650392e-07
aF-8.1837693480220727e-07
aF1.1688338499307725e-05
aF-0.010220640718633269
aF0.00010503819329583486
aF1.2921681567471658e-09
aF-5.185344703466385e-05
aF1.3375384067919659e-07
aF3.6017646846847525e-08
aF5.2925825418708715e-08
aF1.89415140643538e-10
aF-1.8000600451054973e-06
aF-6.4103928482532997e-10
aF2.4541358247499983e-08
aF0.00039308274814528178
aF0.030469710176779335
aF1.8683518306283004e-07
aF-0.011047666164624352
aF6.7506080512965366e-07
aF-0.0513358109240485
aF-4.8493334950466923e-08
aF2.256270552125982e-06
aF1.8301561239752699e-07
aF3.2600385104687509e-09
aF0.020522174927944514
aF2.7123577145609351e-06
aF8.7488931240671863e-08
aF-8.9775431494968608e-06
aF-0.00018700478186793633
aF1.1989710436623889e-05
aF5.4513475808812897e-07
aF3.6829254219647124e-08
aF5.683615714153232e-05
aF-1.4518582801490728e-07
aF3.0927832524875562e-07
aF-6.9544041427415429e-07
aF4.5943082857441219e-11
aF-1.4385473436270936e-05
aF6.2680840326959237e-08
aF2.604009774886662e-05
aF0.00099562721569766612
aF1.3090560862495687e-07
aF4.6550657728340221e-06
aF-5.4957105168109135e-05
aF-8.541540597072678e-06
aF4.5442714988800336e-09
aF-1.4893139192889126e-08
aF-3.25909286864634e-11
aF2.1027784941470506e-06
aF1.4132514248776025e-10
aF8.4795188279810753e-10
aF1.1611762069123364e-09
aF1.1089500536550573e-07
aF-6.4272499416093195e-12
aF-4.5709036506394532e-06
aF6.2805212784037185e-09
aF-1.12947664843065e-12
aF-2.7168289557864645e-10
aF3.7098042628951959e-13
aF8.1774171018671822e-13
aF-2.9451192261750049e-13
aF-5.7698644155863812e-13
aF-1.7788653338249404e-13
aF1.403681940783423e-12
aF2.6463991974477759e-12
aF-1.1179542083988827e-12
aF-5.8549207860260556e-11
aF-0.010037782370582296
aF-2.0684064696455073e-07
aF-7.6375584084251784e-07
aF-1.6192882762931039e-11
aF-9.7065302074210412e-07
aF-3.9388243220814661e-10
aF-3.4740619237974398e-11
aF-2.1772786238082904e-10
aF8.9639958025192776e-14
aF1.8176366485437867e-13
aF5.1495439375157634e-12
aF7.6774809392756559e-13
aF-8.2386576885837476e-11
aF3.5570317149985338e-10
aF-2.9686163697188228e-12
aF-4.0504717294187159e-10
aF-1.3737503213610263e-08
aF-9.2282410195903536e-13
aF-1.2978214502507091e-12
aF2.861553269477174e-10
aF1.1308539963024222e-11
aF0.0018691124555724138
aF0.087432398305636413
aF7.1427924397105283e-06
aF6.069612315859709e-06
aF5.8988109010444732e-09
aF1.2932988154478742e-10
aF9.190220051100159e-05
aF8.8909655291689599e-12
aF-2.8628381089097971e-12
aF0.0002567037235373489
aF-8.3049965181689631e-06
aF-2.4320879800861795e-09
aF0.0015107244835941504
aF6.6677307685345923e-05
aF2.2448303418179026e-06
aF6.2014882352241828e-05
aF9.1874447979256921e-08
aF7.5772017912382575e-05
aF1.8531907253233434e-08
aF5.8722712577242029e-05
aF4.4029597187223726e-11
aF0.00016210356579214721
aF2.9952896363400868e-08
aF1.8134223752047818e-08
aF8.8982325809998772e-10
aF-1.0152718966867062e-05
aF1.3705947557145031e-05
aF0.0026225731350092061
aF8.436019304150175e-08
aF9.2365976152601375e-06
aF2.1789129395665875e-11
aF8.3292645653723567e-07
aF4.4226537375456258e-06
aF1.4839278723873551e-06
aF7.7045345183689755e-07
aF0.0046036208019517777
aF2.1621072397878727e-08
aF1.0437521614860113e-06
aF1.0692125396828782e-07
aF3.8659071146012188e-06
aF2.561805369203846e-08
aF4.2871494316234224e-10
aF1.0063982816292354e-10
aF1.648870419389827e-05
aF0.011731303529934652
aF-1.275023259358238e-07
aF-3.2734213979989572e-05
aF7.8000751785788569e-08
aF6.0749572478994225e-07
aF1.6296800576241629e-10
aF4.1112806100859202e-06
aF2.9523246057131572e-06
aF0.11142024772556221
aF0.080648137739920606
aF0.12884369830348272
aF4.6899208969622313e-05
aF4.6699287953906107e-09
aF2.8479648076377474e-07
aF-7.9557360455200573e-09
aF-7.0935471139369349e-13
aF0.00188062461688872
aF0.087712596089102937
aF4.4301366424012248e-05
aF5.4595808319655406e-05
aF8.2321512616969426e-09
aF2.0051718121295098e-07
aF0.0018105854497375488
aF1.4575835246608431e-11
aF5.8575829733304516e-08
aF0.00025670989076662548
aF3.4721089678598519e-10
aF1.3464808892430254e-11
aF1.2137518364952893e-09
aF0.048089587007159318
aF2.1757162590582204e-06
aF-5.3253305293295779e-09
aF2.0715003629992645e-07
aF8.6616782233807025e-07
aF4.9106871476333292e-07
aF3.0517917352291371e-09
aF1.0345629898638882e-11
aF9.5968974283141437e-11
aF8.4524138553104515e-05
aF0.00080423856168561846
aF8.5742474696695409e-09
aF-1.0474011054746621e-10
aF5.7681684275353179e-09
aF0.0026227067583101992
aF3.2116154819320369e-09
aF4.9162684901286453e-06
aF6.9279364504294991e-05
aF0.00012301772238019478
aF0.00025052210405911076
aF3.9434703014698332e-10
aF1.3297265830416153e-05
aF-4.9865440677354191e-07
aF8.7260127034510262e-09
aF-1.8811488313772307e-07
aF-9.2681738291562908e-10
aF-0.0076872971125408985
aF1.5270573624616601e-10
aF-1.3635743930546481e-08
aF-1.0577209357974938e-08
aF3.1706753582509222e-06
aF-4.5036294579472876e-05
aF-9.6909579534976421e-08
aF-2.0318450787507734e-09
aF-1.5288766950982548e-09
aF4.626891813755454e-08
aF2.5208035732299652e-07
aF1.916075906513667e-05
aF1.7427356489795682e-05
aF0.0022911976272624187
aF0.002449294549767873
aF3.514035848225221e-07
aF-3.9554038901200398e-05
aF1.4598242846313385e-06
aF-0.00076385554438248942
aF-2.1083187217805228e-07
aF-2.1551793855671665e-10
aF6.4973096661914139e-05
aF0.00010378007852340994
aF-3.1708603751292203e-08
aF1.3791672044089669e-06
aF-4.9072540566693584e-09
aF0.058278055346399696
aF0.00053317444477772352
aF-6.80245389208176e-07
aF-0.11551117647903536
aF-5.2064571850232537e-08
aF0.0019549500083871235
aF0.11030295135495281
aF2.2260716861015998e-07
aF-9.1398646240567791e-06
aF-0.00045103928527206181
aF0.020369638790503453
aF1.4218033161411445e-08
aF1.5325564752332884e-05
aF-3.6231135766972247e-09
aF-0.00011342870872663922
aF0.069110896357889404
aF-2.3509066853752973e-09
aF0.08380267551489777
aF5.4046205403956387e-05
aF0.00028951749477500649
aF7.2014941837082302e-05
aF0.00080101926800323704
aF1.8757525057602119e-05
aF0.12083143960164268
aF5.0529548483288621e-07
aF2.8648835732865339e-05
aF3.8686823677756855e-07
aF2.3752158474405334e-08
aF1.7301236651089363e-05
aF3.8826203059407842e-11
aF1.2773668064833432e-14
aF2.6744395332253509e-13
aF6.1779191406721379e-07
aF6.8381621495932312e-07
aF3.7570349604384355e-12
aF7.3645043322040357e-14
aF0.00011019708058570466
aF1.2780863165656122e-13
aF4.8674445916889528e-10
aF2.2088137228426014e-12
aF2.4181294844901579e-11
aF5.1076992868740824e-11
aF2.7611713342851662e-10
aF5.8036505533066477e-11
aF3.2211335724489117e-12
aF3.094838995579754e-12
aF4.285504837149665e-07
aF3.0047357758487341e-12
aF1.5848956943606389e-10
aF3.121902853388535e-14
aF7.4681651776280985e-08
aF2.3626963720090502e-12
aF-2.7245071562358227e-12
aF0.0012501487679426474
aF1.5531447423016471e-11
aF4.3073368287888031e-13
aF3.1107915619752072e-13
aF1.9745412400557663e-15
aF1.8269697221823634e-11
aF6.2822069877393208e-09
aF9.4029997398580682e-13
aF1.9801431399820046e-12
aF-7.0120780151931453e-11
aF1.7079833120059682e-14
aF1.0778980542474129e-12
aF2.9053611547719036e-13
aF2.8880415192201396e-18
aF1.6767771318664089e-12
aF-1.5812364716565271e-12
aF1.402078461171509e-09
aF1.6080741977251662e-09
aF7.9181467830792249e-14
aF0.030822167329936607
aF8.7494892895639237e-11
aF2.980745253962789e-10
aF2.4047877118217956e-14
aF1.3117696671312696e-10
aF1.9197351292177787e-11
aF7.0983781102036e-12
aF0.0018453789015729929
aF2.2308204526445763e-09
aF2.495065669715652e-05
aF0.0007847059186951033
aF7.2895416603470525e-06
aF0.035666937075318622
aF0.00011233916488777451
aF1.2232699270121642e-09
aF6.8411018622150746e-10
aF1.5729415482795096e-09
aF2.757933538914955e-06
aF1.9085004932189191e-06
aF1.6787403665194577e-08
aF9.8720586412047871e-05
aF3.5963169654904295e-09
aF-7.2342216137360148e-09
aF4.7147542735159784e-11
aF2.2519946064942112e-07
aF2.5313084204310949e-10
aF2.3519653930677792e-09
aF0.010131945682920404
aF4.9879214156071912e-10
aF3.4214657367835651e-09
aF0.00076459458402413445
aF2.0349081359581479e-10
aF9.8468449521789854e-09
aF6.3328604975310693e-10
aF0.010266267936564594
aF6.2044998988542527e-10
aF1.7915903835656431e-05
aF3.2787663300386703e-11
aF0.085992041908088193
aF0.0038202901753853543
aF1.2614347975188121e-10
aF0.0044404461940085954
aF3.790358555962958e-10
aF1.4051826332407272e-08
aF7.5989104382918649e-10
aF-4.1740013318288681e-10
aF6.7491279162701541e-07
aF1.1855881561321828e-08
aF1.7907269714669201e-05
aF0.00021191936027382483
aF2.4197226853866108e-07
aF1.3895589857400255e-08
aF-3.6139038476441794e-09
aF1.5043414012928771e-12
aF1.2190453749576982e-08
aF3.6251898772203446e-13
aF-2.8697556844150422e-08
aF-2.8580790636513598e-11
aF-7.7506551146424283e-13
aF-1.460204597103395e-06
aF4.3315226462685066e-10
aF2.9257130113846595e-11
aF1.1631702777117682e-10
aF-1.4912360390801173e-09
aF6.1229896852486183e-11
aF-1.1677340273764468e-10
aF2.0094272003303587e-11
aF1.5897061331963809e-08
aF-2.7998604192803245e-10
aF7.3911673201098382e-12
aF8.3013475741803125e-09
aF-4.4160959170815153e-06
aF-2.9095137558181429e-09
aF-3.4309015975767517e-06
aF-2.1257822593487411e-09
aF-3.5866960878189445e-09
aF-1.5842995288639014e-11
aF-8.9882638497226692e-09
aF2.9127104363265103e-06
aF1.1990121585242327e-07
aF-2.2430624027586126e-07
aF1.6204292137092738e-13
aF-6.6233267177431247e-10
aF-0.00055173883277181361
aF6.0424456708963182e-06
aF1.5194099981586851e-07
aF-2.5956326217859568e-07
aF4.1098827047832261e-13
aF-3.6579789795408954e-10
aF4.2403504401295445e-10
aF2.190373707305589e-14
aF6.7233797340403799e-15
aF9.6577063089813483e-11
aF1.2966393979726954e-13
aF3.2130853382429582e-15
aF3.37813067240004e-11
aF4.6750681531211042e-13
aF3.6117864322592156e-08
aF3.4318575181146234e-06
aF2.1828394088726852e-14
aF-1.5578729514137018e-14
aF1.618394028047998e-10
aF1.3273521997701269e-13
aF3.2438289761867729e-12
aF1.2998566359119845e-13
aF1.0296394851580751e-14
aF2.2581207209089599e-12
aF-5.2156977502226822e-14
aF5.5497868388511705e-17
aF-4.9380490881904784e-14
aF-7.2642457415975612e-17
aF7.8176517820171466e-11
aF3.5891424220986598e-17
aF4.0612746593682149e-10
aF1.8652784947054652e-14
aF1.6511831303685494e-12
aF3.9722609834760597e-17
aF1.147238268747237e-13
aF6.4349281420586778e-15
aF1.5679872074273137e-09
aF5.9821918408640077e-12
aF1.1780024641219737e-14
aF-2.7940837811912493e-15
aF-8.116382089459837e-13
aF6.4388032177874709e-14
aF2.1862724998366548e-13
aF2.4372170591012123e-16
aF1.3100839577956674e-16
aF5.7607883098343291e-14
aF2.8591377713438418e-16
aF6.3400761557846822e-14
aF1.7366712068575852e-13
aF4.8116414454512495e-13
aF1.3876779808106649e-09
aF-4.7546562469355333e-11
aF1.1440004733770257e-14
aF2.6343011493501936e-16
aF7.9082586588057541e-11
aF-3.3605437902462899e-15
aF1.718323699759722e-12
aF1.3640163778194709e-10
aF-1.3273213636237443e-13
aF-2.4993621727783448e-14
aF-7.6663799265777878e-15
aF-2.6708728189603882e-14
aF-6.7579778902820657e-15
aF-2.5984387111068066e-12
aF-2.7801766791725331e-10
aF-3.1016743413613107e-06
aF-1.7545561717597041e-08
aF-3.5988660869247543e-15
aF-2.0189144547008504e-15
aF-1.0452117390814716e-15
aF-5.9839597799232975e-17
aF-4.9541147204560026e-17
aF-6.568870083230811e-08
aF-1.0912398269157751e-12
aF3.2288528877601137e-14
aF-2.9287041175838073e-06
aF-1.4103733845485259e-07
aF-3.4099946903291023e-12
aF6.6358050783127635e-16
aF-1.9643755904648491e-15
aF6.6073227577703663e-14
aF-7.2157610407680813e-12
aF-6.5898797776330699e-07
aF2.2570928493628612e-13
aF4.3237416586645391e-14
aF3.1044393158203167e-10
aF-9.9884959299468585e-14
aF-1.4103939419794481e-13
aF7.177904531725263e-16
aF-1.3214008235182151e-08
aF-9.0100341690690421e-09
aF-6.7299067183581071e-09
aF-1.0865732900964867e-10
aF-0.041033043268881936
aF-1.1810552426138872e-09
aF2.7030246409223581e-09
aF1.3803595354024416e-13
aF-3.5170269544243688e-12
aF-1.531230520938821e-09
aF-1.5646363461870316e-12
aF4.6082873387710657e-11
aF-4.6359473620765841e-10
aF-1.1419858451466722e-14
aF8.1622354391313037e-09
aF9.5153255424157448e-07
aF6.3355021274045424e-08
aF5.9416628658013324e-07
aF4.3859484446344376e-06
aF0.00084513140327561261
aF2.4127434375886002e-11
aF6.8311520656488371e-10
aF-7.2415708952906207e-08
aF-0.0086080952796825736
aF0.13778823649763433
aF-1.7404434954317678e-07
aF-0.061667050621041997
aF4.3377001542605603e-13
aF3.5979718386796483e-10
aF2.4002445195880388e-08
aF1.0923910430474059e-11
aF2.0279905604529029e-08
aF1.5735788286380912e-10
aF1.5372538481989601e-14
aF2.6398824918455096e-06
aF1.7060714709302244e-12
aF1.0122622887997288e-10
aF5.2183907736734608e-13
aF2.6289459385950187e-11
aF3.064157029928705e-11
aF-0.001586283320947872
aF1.7678671082816832e-05
aF6.6215896148302177e-06
aF-4.2703848467065512e-13
aF1.245245820667756e-12
aF2.7689934367509783e-13
aF2.0348772998117645e-10
aF3.8550013974971104e-14
aF-1.4118021259976032e-08
aF1.0172012115787336e-10
aF0.0048566005468776109
aF3.4908470661452325e-08
aF-1.4778942664117551e-05
aF0.00029192990929370036
aF5.5688641347467636e-13
aF8.4726423673376758e-14
aF1.4606260244372954e-06
aF1.4228003515408602e-06
aF7.3136555268185293e-15
aF2.3705390319057841e-15
aF1.4107639757360434e-06
aF3.7147894398937751e-10
aF3.4484370861531972e-05
aF5.7973085858672194e-10
aF1.7947665066430887e-09
aF-7.8766310513322956e-10
aF6.7809610980528334e-10
aF2.0913999561317369e-09
aF1.6159579724837438e-08
aF1.5718006108633402e-08
aF1.9120877649148037e-09
aF2.1457538034894407e-09
aF-7.0573043632214926e-08
aF0.00031380815515241295
aF-0.030470018538243163
aF-1.8319446204654817e-07
aF-7.1976191079794382e-08
aF-1.092339649470101e-07
aF-1.6842497580065471e-06
aF1.5965209215470159e-07
aF1.4618389128616922e-09
aF1.0131616764025655e-05
aF-1.3650853642274135e-05
aF-0.020521969353635292
aF-3.1976364289050938e-08
aF-5.7369108538184536e-05
aF1.0375952109248796e-07
aF2.5333538848078316e-05
aF-8.6244898308428497e-12
aF4.5885316476550475e-08
aF-4.8543289507607324e-10
aF4.1801788398209217e-07
aF-2.2547698596686778e-05
aF-0.0011618854382791446
aF-2.0160364143717741e-08
aF9.1929439106973215e-10
aF8.0104188117725136e-10
aF6.3839868282340221e-09
aF9.3118686485809506e-07
aF6.7402984996891667e-10
aF-1.2129706541202544e-07
aF-1.0229141216319506e-05
aF1.371530118821453e-09
aF3.6110258073151027e-07
aF8.5837244453245703e-08
aF-7.4351088287055626e-07
aF6.3484635876008477e-09
aF6.6816378705533085e-09
aF-1.8227657275588195e-09
aF1.1698514427614101e-08
aF5.5022375011286404e-05
aF-1.6263394750993417e-10
aF2.3628094378791211e-14
aF-8.8755063411156326e-11
aF9.7052145318420336e-10
aF2.4668814319216229e-12
aF0.00023982607275040683
aF-3.3509023551438834e-08
aF0.00025242880577712402
aF3.8954070279742537e-12
aF1.7612990091021122e-06
aF0.00036050024800549638
aF0.14283405791743328
aF4.4555559057362474e-10
aF5.8328934987931584e-09
aF1.4756843425876428e-09
aF1.5992653385750997e-06
aF1.8597793819338367e-08
aF0.0010421281244431752
aF5.2472328492569928e-09
aF3.0120131063951136e-09
aF4.307881600708235e-10
aF1.0555624055506863e-08
aF2.419547947223774e-09
aF0.00061699325787589504
aF0.00013285650881945235
aF5.5211092227150142e-08
aF5.0289951625892985e-09
aF3.0516683906436052e-08
aF5.3311482822804979e-11
aF1.794355358024649e-05
aF0.0023718135926229468
aF3.556600008949172e-08
aF1.9926523366980266e-10
aF1.3509624091840163e-05
aF0.040704535522748768
aF0.034442536489605748
aF0.0044669036076051783
aF1.4023662652044164e-05
aF0.00013038961710881526
aF6.269523052860461e-05
aF1.2179661098342944e-05
aF1.0166471888153863e-07
aF8.5481703685450155e-08
aF9.6517652114448958e-07
aF2.8734971368428415e-08
aF3.0911181005828767e-07
aF0.005578156093523497
aF3.1310303527178924e-09
aF-0.00151113563221259
aF1.6674132220814492e-06
aF0.0030471868707026141
aF-6.1904283373881593e-05
aF3.1250995338969021e-08
aF-7.0702452659868764e-05
aF-1.2031133659931669e-08
aF-5.8652303376334261e-05
aF2.3818147827664876e-06
aF-0.00016210048217750889
aF-6.0037257497547763e-09
aF-1.2794225495755406e-08
aF0.00027625692395878606
aF-1.0547401083138073e-11
aF-1.3689501612407449e-05
aF-2.3179120087455264e-09
aF-8.4316200139328737e-08
aF-9.2352099886729028e-06
aF2.8458268348218625e-09
aF-8.3259650977093786e-07
aF-4.4222939825044907e-06
aF-1.4838662000945891e-06
aF3.2110501525816823e-08
aF-0.0046035180147971679
aF-2.0174240409590074e-08
aF-1.1212742334927815e-06
aF-1.0682566191450064e-07
aF-3.8620114814415041e-06
aF5.388164316942597e-05
aF-5.1899495679929079e-08
aF-3.9498944986329505e-08
aF-1.3311656032061535e-05
aF-0.011731303529934652
aF-1.4650253146545983e-08
aF-3.4244876791290953e-06
aF-1.2261685247721628e-05
aF1.043063487550125e-07
aF-5.6365391973419078e-11
aF-8.7472896444552711e-11
aF-2.9382222081006823e-06
aF-0.11081791499954831
aF-0.07980055486300755
aF-0.1285199187664616
aF-3.1684037621340441e-05
aF-3.9332121434397672e-09
aF-3.6837374404861308e-05
aF2.6887372264315851e-10
aF9.7277968697098231e-09
aF-0.0018690302258487258
aF-0.08733711461331306
aF-7.1233656674892618e-06
aF-6.0504939051022718e-06
aF1.3061677672050311e-07
aF9.4934729933456836e-08
aF-9.1535147581889713e-05
aF2.9214370657528888e-06
aF9.1792629404187462e-10
aF-0.00025669755630807232
aF1.2136798854870624e-07
aF2.1468330686128445e-09
aF0.00029176133836014017
aF0.00091643485242848526
aF0.00079865002408947947
aF9.6552805321325542e-05
aF0.12084480193174196
aF-9.595108931823932e-08
aF2.1882665706360866e-07
aF2.6137745545746005e-10
aF2.9791006594890307e-08
aF4.2776724559683917e-05
aF1.1042526806893858e-05
aF6.0568975448344668e-07
aF0.00074895449057869531
aF8.0671984359790089e-07
aF8.9508698828755967e-07
aF-0.0026225422988628232
aF1.0790287129481215e-09
aF0.00011031117432732162
aF0.018506929974663234
aF4.0267690115656784e-08
aF3.2107006762560091e-08
aF1.2862681740725588e-07
aF0.00096090982635663354
aF0.00010553876673878495
aF0.15419203850182484
aF1.0570117044306856e-08
aF8.1335681017106077e-09
aF0.030704373250753689
aF3.1309378442787428e-10
aF3.6177378085111282e-08
aF1.0015179475283582e-08
aF9.1129446682644524e-06
aF-8.5965522822198839e-07
aF2.6116263030432545e-06
aF0.0012501590466581084
aF1.3038858923726918e-07
aF-2.8601964790363232e-08
aF-6.04267180263646e-08
aF-1.9152433305613272e-05
aF-1.7424272875157384e-05
aF-0.0022415822677322303
aF-0.0024493253859142559
aF3.9738747418034349e-05
aF3.128758756601014e-07
aF2.4292202184725637e-05
aF9.774739763220155e-05
aF4.2720294411803096e-08
aF4.9025361262727653e-09
aF-6.5035077316143888e-05
aF-0.00010378007852340994
aF1.4296356973224171e-08
aF-1.3823022126245683e-06
aF-1.8832251319003498e-09
aF-0.052956250416473234
aF-0.00053333890422509937
aF2.011883813325535e-09
aF0.0085870753065648529
aF2.0131069804653927e-05
aF-0.0016563327668145044
aF-0.11030295135495281
aF-2.413761030419238e-07
aF-1.1969872515784181e-07
aF-5.6689068723285586e-06
aF-0.020369947151967282
aF0.00022467832977554901
aF2.3447188986677826e-05
aF3.4725098377628307e-10
aF-1.3886236226330755e-05
aF-0.069110896357889404
aF9.0017906392693308e-07
aF-0.083802367153433949
aF-5.3501125123060203e-05
aF8.3988206328968608e-09
aF0.18464376092654744
aF-1.8984581882135342e-07
aF-1.7402379211225481e-05
aF-8.103492580271758e-06
aF-4.0846895731883451e-07
aF-4.2514720102583338e-06
aF-1.2752802272447626e-07
aF6.9690410335579895e-07
aF-1.7294761060348938e-05
aF9.3941497658461587e-05
aF6.0967275672457956e-06
aF3.5121651220113213e-05
aF0.0015149695930795383
aF3.8056635632843687e-10
aF2.3195154883574405e-07
aF1.8792986625942528e-09
aF1.1441135392470965e-08
aF4.1026053742368469e-05
aF4.9036153913961688e-08
aF8.4990381086414922e-07
aF2.074409239474724e-06
aF4.4320998770542732e-07
aF1.2511560820578241e-08
aF1.2065464569571369e-08
aF5.1619811832235595e-09
aF1.370471411128971e-09
aF4.1790379024047524e-09
aF1.1501779813690794e-08
aF9.1964900675313625e-14
aF3.4836519653225411e-13
aF1.2189837026649322e-12
aF4.5868151021730627e-11
aF0.00012374339969174053
aF7.3036235005286061e-07
aF3.051647833212683e-11
aF1.5979393842806322e-08
aF4.1561677605040543e-08
aF9.6063127316764088e-14
aF1.88749079881666e-10
aF9.0011122440489049e-14
aF4.8115078221502565e-12
aF1.8859592702129731e-13
aF1.9954481473034156e-09
aF0.030835324085726673
aF1.7092784301540528e-11
aF3.7844894094347338e-11
aF1.2162290069213875e-12
aF7.7000632771434448e-12
aF2.5927340240259582e-11
aF0.061106449479799728
aF2.0640585730055092e-12
aF5.6735939665787688e-11
aF7.8168500422111897e-08
aF1.4642338535641025e-12
aF5.1417732286272569e-12
aF0.00022104274811699765
aF4.8354777866052798e-13
aF4.4943580566014765e-10
aF0.00044209885856409453
aF-0.0018453480654266098
aF-1.6602489574051407e-09
aF-2.4948292592600494e-05
aF-0.0007847059186951033
aF-7.2894902667697466e-06
aF-0.035635998141781047
aF-0.00011380490971251139
aF-9.1925224833634199e-10
aF1.2329421982609538e-09
aF2.1190908155836384e-09
aF-2.757871866622189e-06
aF-1.3698752456322339e-11
aF-1.6452831476939422e-08
aF-9.8720586412047871e-05
aF-3.570250143081364e-09
aF0.0003561718809248744
aF1.4610988453485011e-06
aF0.00023960405249644949
aF1.7416049902788594e-08
aF0.00033263465039075834
aF-0.010131914846774021
aF1.4128299975437019e-07
aF2.9890915709171107e-09
aF0.0090078961962531574
aF3.6617307106841556e-07
aF-9.4423363839272694e-09
aF3.4656950494121957e-09
aF-0.010266267936564594
aF2.0737925165470646e-09
aF-1.497454661934015e-09
aF1.2873474391959624e-10
aF-0.085049586487470213
aF-0.0038202901753853543
aF6.7010338066281916e-11
aF-0.0044404461940085954
aF2.7550452198704176e-07
aF2.0655181506009696e-07
aF-4.9556462490596892e-10
aF-1.4040211383936354e-11
aF4.7931500363369328e-05
aF1.2087769382121713e-05
aF-1.7284173983424119e-05
aF-0.0002017125958210639
aF-7.12023065927366e-08
aF-1.3880274571363383e-08
aF1.3248647506285679e-05
aF1.8944597678992099e-09
aF-1.1064009322207322e-08
aF3.0497154347060171e-08
aF5.6038837183223488e-07
aF3.9498636624865666e-08
aF1.1071923933112283e-09
aF4.3401876034021202e-07
aF-3.9773386689137875e-10
aF4.1766326829868812e-06
aF4.0987302985080541e-09
aF3.1548153002946182e-11
aF1.7764601144070692e-09
aF2.5704703263374584e-05
aF1.0359814525975045e-11
aF-8.1862567971636329e-09
aF5.0678795431782158e-07
aF3.3867031210945038e-12
aF-9.5225412006693575e-09
aF-8.0677432078984417e-11
aF-2.7089862958897311e-12
aF-4.7743913806206296e-11
aF-2.0345894957788571e-14
aF-4.1261127964961263e-11
aF-6.1119297874125952e-12
aF-1.085452910111239e-09
aF-2.9125459768791342e-06
aF-1.1985187801821053e-07
aF-1.2850655643636232e-15
aF-1.627624314531965e-13
aF-1.3193142442796347e-11
aF-4.986184312694285e-07
aF-5.9830141381008863e-06
aF-1.5735274350607862e-07
aF-1.2332505597247833e-11
aF-8.5623344384502556e-15
aF-7.8736502238486088e-13
aF8.5237995341870109e-11
aF1.5066232761252162e-15
aF1.3234051730331078e-12
aF9.518450271915884e-10
aF9.5216058375624081e-11
aF-3.9779348344105254e-14
aF1.2804606998371005e-10
aF2.6889839156026489e-11
aF-3.6100184931999264e-08
aF-1.4436353077802828e-13
aF-2.1351358904182405e-14
aF-2.6539540533116019e-15
aF1.342688043237921e-12
aF9.6135386686454831e-15
aF8.2923948130137914e-14
aF6.7053611458372689e-11
aF1.1865543553855154e-13
aF4.7495066104895783e-08
aF3.851825274419665e-10
aF1.6014752623992122e-15
aF5.1024879781353622e-08
aF4.0741024962635274e-17
aF2.5195392912282639e-17
aF1.017424259704237e-10
aF7.7626503755854008e-16
aF6.1071193485768534e-14
aF2.9296703168371404e-14
aF1.1194137859943428e-11
aF3.219396469536005e-17
aF-3.2937013036034862e-18
aF7.9274387418559581e-16
aF4.9061028405377279e-15
aF6.3281836819963185e-06
aF1.7375448976717693e-15
aF1.0627369489424559e-16
aF1.0053231279920161e-15
aF1.342821666538914e-12
aF3.5055353505389847e-12
aF1.4516938207016972e-11
aF2.0755810130372765e-12
aF1.047329154466435e-11
aF7.1262128716719555e-11
aF2.0199526049624107e-08
aF9.0848940537714162e-15
aF0.00027625795183033218
aF3.6106249374121242e-13
aF1.4999523897910351e-11
aF1.4118843557212912e-13
aF2.9182917788218267e-13
aF5.2003002344621217e-13
aF3.0282945916853187e-12
aF2.1050912051257726e-14
aF2.3335356562462279e-12
aF3.9864353320967622e-13
aF4.6079481411608537e-08
aF5.4633736779706454e-08
aF1.3730102538478352e-09
aF9.2664881198206899e-11
aF1.3558242415970634e-11
aF4.3990949217090413e-15
aF2.4191779134671785e-16
aF4.3126098098202891e-06
aF-1.7456445254550277e-12
aF-6.989505956040816e-14
aF2.9913631670339893e-13
aF-8.931103913044116e-15
aF1.0142399136544231e-13
aF1.5438527835249141e-10
aF-3.0300933668909915e-10
aF-1.9632654891950625e-08
aF2.4011284891176838e-13
aF7.6936082438339462e-10
aF3.6410910500384922e-10
aF8.107819919480834e-09
aF2.0289875958526188e-08
aF5.6627602004828875e-11
aF4.2549051012223035e-10
aF2.5467470510534986e-10
aF8.6530749385398557e-09
aF4.1452003711071804e-10
aF5.8385467922967019e-07
aF-6.7110452754871937e-05
aF1.1289729913730615e-11
aF-1.3751482266637206e-09
aF4.8336892901150687e-12
aF3.7391705529672386e-07
aF1.5790368265478756e-09
aF1.3554747652713898e-06
aF2.8911456912893577e-08
aF1.4587964130852397e-07
aF9.3175424995154161e-10
aF7.0859100283494214e-07
aF1.5000140620838009e-09
aF-5.7637999734643986e-09
aF2.30223696766752e-07
aF5.7170729329787471e-10
aF1.2035964656198335e-07
aF5.9064377079165273e-07
aF1.8078615901403874e-11
aF3.2148841134486312e-12
aF-9.0753142909617764e-05
aF5.9170967358495706e-11
aF2.6636366032758527e-05
aF0.00011762550824936057
aF0.0615214012229598
aF4.6842778821741495e-09
aF9.3530246252867466e-09
aF1.9756616200410136e-09
aF7.385082320556934e-09
aF2.2638254079898082e-11
aF3.4601137069168794e-06
aF3.0393647682368024e-10
aF2.1058107152080418e-08
aF3.7246261705899406e-08
aF1.0085136412711067e-09
aF9.80600761565248e-10
aF1.1441649328244016e-07
aF1.1801918305151639e-07
aF1.7336287070811327e-11
aF2.5511668987017234e-06
aF3.8550630697898769e-05
aF3.8961676529183667e-10
aF2.2089987397208991e-07
aF2.0212580018259559e-07
aF-3.0803460067797609e-09
aF2.3865018770166981e-13
aF3.451829062255323e-14
aF1.2125697842172758e-12
aF8.0392917235024274e-13
aF6.2028861405268771e-15
aF0.061474633067612305
aF1.8136999005222283e-11
aF1.7467443480093533e-10
aF2.7499469770017676e-10
aF1.5731265651578077e-10
aF4.9998961191192426e-09
aF3.8797217081807863e-10
aF-3.3567509442411854e-09
aF8.6513069994805662e-13
aF3.7270313900078114e-09
aF1.5251044065240722e-12
aF0.00015501227999561168
aF2.4544853010756718e-11
aF9.6807100741830392e-14
aF6.1574953330511545e-09
aF1.3665963354001785e-13
aF1.6558496671878377e-13
aF1.4596803826148846e-11
aF6.1064306746409664e-14
aF2.5976883648781544e-10
aF1.8253970787168325e-11
aF4.166754837428872e-09
aF6.2555028849716737e-09
aF-1.6774966419486784e-11
aF1.8185720116507365e-08
aF1.6114456163963701e-13
aF8.2668316476623151e-13
aF2.1025934772687527e-11
aF-5.8375189207506034e-10
aF2.015316904289505e-07
aF8.9869378954282023e-10
aF-1.9549808445335061e-08
aF6.5744000321488228e-10
aF1.0812694729186169e-08
aF-1.0069594994934054e-05
aF-1.5899117075056008e-07
aF4.3847869497873463e-10
aF9.2021433610349042e-08
aF1.8960015752183581e-09
aF6.3621651153103454e-09
aF2.1502353234304311e-08
aF3.5247976633128757e-08
aF8.0399906761537755e-11
aF1.9834117714985988e-08
aF4.9058458726512039e-12
aF3.6861529386194633e-09
aF-4.8307392987777654e-06
aF2.604811514692619e-10
aF1.5870131097456023e-11
aF0.00077334279875298118
aF-5.817249293861535e-09
aF-9.2951760146723053e-07
aF2.5370747798047093e-05
aF1.4555586177150287e-09
aF4.4032989163325854e-08
aF2.7011436359929972e-10
aF6.569342904142016e-09
aF2.6061683051334698e-06
aF6.4142576452666315e-07
aF1.5023267730625232e-10
aF-6.8417185851427325e-09
aF5.7625048553163135e-08
aF8.091075891994884e-09
aF3.2520725059864849e-07
aF4.0985452816297567e-08
aF1.5042283354228061e-08
aF9.1299559423523872e-10
aF0.010275714076073243
aF8.2550008461667182e-07
aF5.1564615130210097e-07
aF3.3682219906956478e-11
aF-3.7388930276497918e-10
aF0.010238063141339643
aF3.7591215396770157e-12
aF1.2996305041718429e-05
aF6.8639411679693885e-13
aF-4.9141407960282202e-11
aF1.2005436871279201e-10
aF-1.081218079341312e-09
aF-1.5991111578431849e-06
aF1.6028731677019063e-08
aF-0.0010417889268329627
aF6.8745488023251286e-11
aF3.2407453615484769e-07
aF4.6363173958331798e-09
aF-6.3996927054584115e-10
aF-2.0020984762066744e-09
aF-2.1900961819881424e-11
aF-2.752393311281483e-08
aF5.7778201413531856e-10
aF-5.0004100548922912e-09
aF-2.9027092461829692e-08
aF-5.3576056958770804e-13
aF-1.7928957804291888e-05
aF1.2043468118484854e-07
aF-1.2283578911653531e-13
aF-1.4937851605144423e-10
aF-6.59091792789463e-09
aF0.00064458955314555528
aF-0.034386825851807197
aF1.900123340118214e-06
aF-4.0767132899906181e-10
aF-1.5967264958562357e-09
aF-6.1603528159493096e-05
aF-1.2178530439642235e-05
aF-4.82215657136784e-08
aF5.3247549212637629e-08
aF-9.6477976272769545e-07
aF-2.7797860879850154e-08
aF-2.0076798187019907e-13
aF-0.0055700667444556996
aF-1.4744508967323241e-13
aF-2.6573665868446501e-12
aF-5.2478392934691904e-10
aF4.4102987215615186e-11
aF-1.0048513349523568e-07
aF5.9606784894041591e-08
aF-4.9604155730335879e-06
aF-1.0994011269917995e-09
aF-7.0460491697917103e-08
aF2.8543376112235604e-11
aF-1.120225804515761e-09
aF-3.2096522472789879e-14
aF2.053337872779699e-06
aF3.1788161008960246e-11
aF9.9405457223213508e-10
aF4.5558658899200276e-05
aF1.6786786942266918e-06
aF4.1390023056842046e-09
aF0.0083736069438710582
aF2.3073454892516306e-07
aF-2.0473967752432482e-10
aF1.4600812525178632e-06
aF7.5450294118453665e-08
aF-5.3900144857255757e-05
aF1.4241263058353276e-10
aF6.1267105802454958e-07
aF0.00010374821450548087
aF1.7987752056728739e-06
aF1.4886252453530264e-06
aF-2.188801063840058e-08
aF0.024413079878546854
aF0.00018765439668507082
aF1.0991441591052747e-08
aF2.8543581686544822e-10
aF6.0023895167448478e-09
aF0.0013713862168049991
aF0.15011036059226657
aF-0.00032312272710316019
aF1.1366614705378806e-07
aF1.2874502263505724e-07
aF6.2188387069223307e-05
aF1.2194256874297546e-05
aF1.9964862975649752e-05
aF9.7006199460309715e-08
aF1.3629268339806062e-06
aF0.00020231595641862385
aF4.0460107669086479e-11
aF0.024384196688101479
aF0.00014950802786625267
aF6.413270888582377e-10
aF4.5056543648931024e-07
aF1.718087289304119e-07
aF1.8196307193432184e-05
aF4.5188316781140883e-06
aF5.4022050422623066e-06
aF0.0058959431394308582
aF-2.5815610603198644e-06
aF1.4946074577513214e-09
aF1.7253954559968818e-05
aF0.040968595722941543
aF2.6903818209053429e-13
aF-0.00029175619900240966
aF-6.8135549047796266e-05
aF-0.00080082397240947834
aF-9.6542526605864558e-05
aF-0.12018799201378484
aF-3.1690615999235473e-10
aF1.3239499449525401e-09
aF6.3904315828280614e-06
aF7.4408340732173319e-12
aF1.5472447596270401e-10
aF8.3199314917337783e-12
aF2.8042597094976274e-12
aF3.0350785438895706e-08
aF-6.1734170633002245e-07
aF-8.9447026535990027e-07
aF-3.2145038009765741e-13
aF-4.6658173092062149e-12
aF-0.00011028239392403084
aF6.8030089427166524e-08
aF-7.0054482437208088e-13
aF-2.3668900879171333e-13
aF-2.4282129043573868e-11
aF1.1245737011557589e-05
aF3.2768442102474659e-09
aF0.00032851596910554048
aF4.0350947710890779e-11
aF-2.1338304935546947e-11
aF-0.030704373250753689
aF-3.7483700033048224e-11
aF-1.8130215053018033e-10
aF1.6047438939158062e-07
aF-1.2273916919120201e-05
aF-4.4061769566616619e-09
aF-5.31577132395086e-11
aF-0.0012501487679426474
aF4.0208690288910713e-11
aF-3.9988211842272523e-13
aF-2.6029099523323365e-13
aF-2.5521742128169004e-13
aF-2.6724043475640753e-11
aF-8.9436336671910601e-09
aF-1.8296627456331426e-10
aF4.7087206675403779e-05
aF-3.1892078822270836e-07
aF-4.7843411771868653e-07
aF-1.5366165678403788e-12
aF-2.9406788210958582e-13
aF0.0038741403656854696
aF-4.038897895809644e-10
aF-2.4881378154949464e-09
aF4.0974660165063534e-09
aF-1.0660466953208939e-09
aF-2.6205173919170086e-09
aF-3.8956228809989346e-08
aF-2.018688322960709e-08
aF-1.6316946858545165e-09
aF0.0086921957295843753
aF2.7287522657212108e-08
aF-0.00021620147313487236
aF-1.7922173852087637e-09
aF4.1569900577409334e-07
aF-9.6038972335430769e-09
aF4.6910001620856354e-07
aF-8.9464397565119103e-07
aF-2.6100639382931839e-07
aF5.8189555606280591e-06
aF-7.7937948834321937e-09
aF-1.3608608121729473e-07
aF-5.4508233663927786e-09
aF-2.5436839938461243e-08
aF-3.2120780241277813e-07
aF-9.6520119006159599e-08
aF-2.4397353443891546e-05
aF0.012755371951312874
aF-7.2011858222444008e-07
aF-6.0815767406562987e-09
aF-5.9061704613145412e-07
aF-5.7860019988601323e-06
aF-1.3448465734847285e-06
aF-5.8085021070042348e-09
aF3.7424186270529105e-10
aF-2.318765142128788e-07
aF-7.4126395567078425e-10
aF9.043008288267892e-06
aF0.00018709523456399306
aF1.6328150658397639e-06
aF-8.4983391559901449e-07
aF-9.2772293774774213e-10
aF-3.6982304292861231e-07
aF-7.0340950237105814e-09
aF-1.1627899652397117e-08
aF-4.0370271695957445e-09
aF-1.2703670012544106e-09
aF1.4530300537116254e-05
aF3.622517411200487e-05
aF6.597393518635052e-15
aF-1.9857655973391648e-14
aF3.1043879222430116e-09
aF-9.0247224534627935e-11
aF1.4173423536310757e-12
aF-1.5982580244599229e-11
aF1.6374302090817476e-10
aF7.1259661825008916e-13
aF4.3314609739757407e-11
aF1.7829048690011086e-14
aF-1.752870462424102e-10
aF-7.303428204934846e-07
aF8.0865738146229713e-09
aF9.3556456977292984e-07
aF2.1819554393430399e-08
aF5.9416628658013324e-07
aF4.3871921692052174e-06
aF0.00084513140327561261
aF4.5903920951534862e-10
aF7.099590998627996e-10
aF6.462629280226041e-12
aF-0.030835118511417452
aF0.13786635473513786
aF8.6753180787974343e-11
aF2.2306148783353562e-07
aF5.9420123421270058e-13
aF3.3821290927143643e-10
aF3.8959723573246083e-05
aF9.6196750617756924e-11
aF0.00044976164094026101
aF-9.349272894143486e-11
aF1.4191616862676705e-10
aF2.6399647215691976e-06
aF2.1267484586020741e-12
aF1.2629149325451943e-10
aF2.4243275499131333e-07
aF-3.0814047144722425e-05
aF3.4829221765248114e-11
aF6.3237946704944769e-07
aF1.7678773869971443e-05
aF6.621897976294047e-06
aF1.1885484261849471e-07
aF2.8619438606646913e-08
aF1.2433853731693173e-09
aF1.3522369699011786e-07
aF-9.7123993539492649e-10
aF-0.00035318796982654961
aF4.7646163222172301e-07
aF0.0048566005468776109
aF0.00017409265950584342
aF-7.6107720759338438e-05
aF0.00029296292019752963
aF0.00016707435258908092
aF5.4457662383859734e-05
aF-0.00023439582737236697
aF1.7890618195622404e-06
aF0.00097822740616530595
aF-3.6665000346580544e-11
aF1.2922812226172365e-06
aF-1.5575131963725668e-10
aF-0.009772396216095049
aF1.9892500818804397e-06
aF-0.00092723983812107575
aF5.6648262222905462e-05
aF-1.603417939621339e-10
aF2.2553968613117982e-11
aF0.00012947275568969517
aF-2.0969812986270535e-07
aF-3.9064258109484323e-08
aF1.6146628543356596e-07
aF0.00074998236212479418
aF-1.1774371347716192e-05
aF0.030703448166362196
aF-2.5418132676322243e-08
aF1.3623101110529468e-07
aF7.464207872175618e-10
aF0.13298910424889912
aF9.5378462079907676e-06
aF1.7415638754170154e-06
aF-2.8194105360871235e-08
aF0.0061205844658307482
aF4.1133671893245007e-08
aF-1.3219455954376475e-05
aF7.8945571310962579e-06
aF3.4811850736119041e-10
aF-2.7357829070965265e-10
aF-5.1793624910680899e-07
aF5.4824098590043956e-07
aF-3.1544761026844057e-10
aF-2.4682690585088567e-05
aF1.7903466589948641e-07
aF-4.1756664837335485e-06
aF1.292764322243903e-06
aF-6.2517922686902567e-12
aF4.0877834665421021e-07
aF0.014396780023278025
aF0.0078415909103257877
aF2.2624377814025751e-05
aF0.00019103609407173581
aF0.063295507511526308
aF5.9945879717099582e-13
aF1.019837702094477e-10
aF2.7785834782760797e-08
aF3.1867204330855247e-08
aF7.0507259853264596e-09
aF1.4646552808980028e-09
aF1.2422752718995307e-06
aF4.5098994743784902e-08
aF2.3178914513146044e-14
aF1.6917326628621464e-17
aF2.7675441378709787e-08
aF4.7840019795766534e-14
aF1.2346895798893215e-15
aF7.9742582907807579e-11
aF1.1093920384198798e-13
aF1.1222095965997316e-12
aF3.9107428714420472e-17
aF1.5508217526074638e-11
aF1.8226526616887487e-16
aF2.8330401127883934e-10
aF5.6885906124363496e-13
aF3.7586487187658104e-16
aF3.8944099925745379e-17
aF3.2809043028545557e-16
aF4.9832959936497473e-13
aF5.3475017185789289e-06
aF4.5852321799920699e-09
aF-5.0485555581115594e-13
aF8.8399419856206157e-13
aF3.9057782518743904e-18
aF7.9043835830769626e-13
aF3.1505599120937689e-12
aF5.3398029606986499e-16
aF3.2285753624426669e-18
aF1.8088072319627978e-16
aF1.9753532585771841e-16
aF7.4857520597818494e-15
aF-1.7455417383004178e-10
aF1.6638156716701035e-12
aF1.6324450320831686e-09
aF1.0521087571557945e-13
aF7.4705498396150492e-15
aF2.7706483099401969e-16
aF1.2754138505457555e-17
aF5.3919160480858575e-13
aF4.7602581468617716e-12
aF7.6815513105982067e-09
aF5.5625530034537173e-11
aF-3.322080836991273e-12
aF1.1345748912992999e-11
aF4.2595921954725141e-10
aF-6.8674462099415863e-11
aF-6.594248231703989e-09
aF-1.046465742367712e-11
aF-8.8191070293811935e-12
aF-2.0183491253504961e-08
aF2.8630642406499387e-12
aF-0.00027550554985858786
aF7.7220700069454203e-11
aF7.9657475143790592e-14
aF2.0476023495524677e-10
aF1.6874567172303754e-12
aF3.8925084302142552e-12
aF-2.7486313014227613e-12
aF5.4386430885715084e-15
aF2.5200532270013134e-11
aF7.3944873452037374e-12
aF-4.4993123974536732e-08
aF-4.455298937849723e-08
aF-1.3617345029871316e-09
aF-9.2664367262433842e-11
aF-1.3380420638495545e-11
aF-2.5034119866699736e-12
aF1.0512659024879934e-08
aF6.05516044192156e-06
aF9.3145822294626528e-10
aF-5.0060119548185297e-09
aF-1.4309102580395797e-13
aF8.285765041541455e-14
aF9.6035888720792455e-12
aF1.0414702866536721e-10
aF3.6939236475079694e-09
aF-3.6629024842467084e-11
aF3.8681273171407916e-14
aF-5.8180099188056482e-13
aF-3.4687067130422648e-10
aF5.684561355975643e-12
aF1.5538745310993774e-08
aF2.9189496166113298e-09
aF1.0699012136187644e-11
aF-1.4194186541541954e-13
aF7.7103522713198935e-13
aF5.4619654939524899e-08
aF1.9083360337715434e-11
aF1.9893425903195889e-11
aF3.1366528100750528e-09
aF1.3100222855029016e-10
aF1.9245558467689821e-06
aF9.3137496535103121e-10
aF3.6293527569820437e-11
aF3.4284244271506534e-08
aF9.9500843702691463e-11
aF7.6264985105891559e-08
aF5.5465284860500366e-10
aF2.4633866686648874e-10
aF1.0977976473798853e-12
aF5.139964174706124e-11
aF1.2471268255971169e-07
aF2.4712601647080042e-06
aF8.7574141791843439e-08
aF4.5626087272624361e-10
aF5.696001566283722e-11
aF1.725950506631775e-05
aF-1.4389070986682283e-10
aF5.2276724537347332e-07
aF2.3403607233123239e-06
aF2.3424884174127484e-10
aF1.9887772609692341e-07
aF1.4527730858251009e-12
aF1.8110377132178322e-11
aF5.5162165541555841e-09
aF1.1643214938433987e-07
aF2.6042667427731869e-05
aF0.0011713521352187146
aF5.8146385001344441e-06
aF8.6730567613960171e-11
aF5.6946242184119505e-11
aF2.3775799519965608e-12
aF3.6737876439198948e-10
aF4.8640012220095222e-11
aF1.4238076656560371e-10
aF2.1271801646514354e-06
aF3.9466464245472782e-11
aF2.3978598576010898e-09
aF1.1698206066150272e-09
aF7.4955373969007096e-07
aF4.5033005390525359e-11
aF1.3259851306138156e-12
aF7.0505820833100063e-09
aF5.5564166103235076e-13
aF1.4529067091260935e-12
aF0.0018418944170317179
aF1.5936223237870172e-09
aF3.423336462997465e-07
aF0.00078454865434855021
aF1.2187370134938685e-07
aF8.9507773744364466e-07
aF0.00011390769686712126
aF1.4453004596849626e-09
aF6.6330812187156016e-09
aF3.3480962658230338e-09
aF3.5851440017843354e-08
aF7.0179471617213694e-12
aF2.3327955887330369e-09
aF9.8639795708524531e-05
aF1.8293852203156958e-10
aF2.9684519102714473e-11
aF3.3855005113855684e-11
aF2.1738249754133986e-09
aF2.5233424159488297e-10
aF1.2160645474740117e-09
aF1.4644497065887832e-05
aF4.1584804714827769e-10
aF3.2545393976971226e-09
aF2.3941903561815168e-08
aF8.2079346080708555e-11
aF6.225232067939065e-09
aF6.3086644013359037e-10
aF9.317706958962792e-08
aF1.8323249329375382e-10
aF1.8247392409273292e-09
aF3.500067073913739e-11
aF0.085832002308360605
aF0.0038202901753853543
aF2.4130929139142737e-11
aF2.1510576206673104e-06
aF1.1450077874922026e-10
aF4.0901475710981295e-09
aF1.2079032473979871e-10
aF1.6331028698726716e-11
aF1.9463570022617375e-08
aF1.2443412937071891e-08
aF1.1927626995239521e-09
aF8.190635529950014e-06
aF1.8330341643043466e-09
aF1.7445549816161628e-09
aF1.8771812472092894e-11
aF2.5826814403051125e-12
aF1.3097961537627599e-13
aF4.5024062908074304e-08
aF2.4697697509661607e-10
aF6.4894875637256018e-10
aF0.007695283674454087
aF4.7432160366274531e-12
aF5.8247321987171337e-09
aF1.7269167058851078e-07
aF1.3700088689332268e-06
aF1.0387669844874321e-12
aF-2.0702771958594072e-09
aF6.8294355201668525e-11
aF3.9819743695866929e-11
aF0.00088397158538804739
aF3.5780414094007925e-08
aF3.1705622923808517e-07
aF6.4484240954589547e-11
aF4.0479123292689304e-10
aF0.0020320609317754541
aF0.0003455837761285108
aF1.7483683850521895e-10
aF-7.7577988218878139e-10
aF1.2990137812441835e-10
aF-7.2890688394358468e-09
aF3.7487503157768788e-05
aF1.4702982956860851e-07
aF8.2020654615426316e-12
aF-6.8932560644641267e-10
aF-0.010275714076073243
aF-8.2528012010580675e-07
aF2.195399999166012e-06
aF1.945873902635071e-11
aF6.9894237263171279e-07
aF0.19466345275791841
aF7.2308296376338892e-11
aF0.00057488752786150434
aF4.4353890660017892e-12
aF3.2669252498276123e-11
aF8.2923639768674102e-12
aF5.0856719996411858e-14
aF3.1799981531740382e-07
aF1.0586768563353657e-09
aF4.2160515567797694e-06
aF3.382252437299896e-09
aF0.00015067980142880529
aF2.0318656361816954e-08
aF-3.7499734829167366e-11
aF2.3308323540799879e-11
aF-8.1130723430813983e-15
aF2.5470965273791722e-13
aF-2.5540038241689563e-18
aF9.7502455842766214e-18
aF9.0209912797504549e-16
aF4.1432782513159758e-19
aF-1.2427172566643532e-16
aF4.5287403598184813e-17
aF4.5282572601918145e-14
aF-1.2398289376198155e-20
aF4.4616614627200749e-11
aF-7.6688365395729641e-19
aF-5.9600206516146555e-15
aF-1.869605833914541e-18
aF-1.1171421898774645e-18
aF-4.8535169322393145e-14
aF-2.4926707290132414e-18
aF-5.3668873759383523e-17
aF-2.7534725764048864e-17
aF-6.4301177032229361e-18
aF6.0037463071856989e-15
aF3.782495338635302e-19
aF7.3340587770085897e-18
aF-7.3813819829909791e-20
aF-3.840518687412579e-17
aF-1.429759041907949e-19
aF-1.3024674296390755e-15
aF2.1830860980437486e-14
aF-7.9578431821895593e-15
aF-8.7393955909812326e-13
aF-1.2307014382904583e-16
aF-2.1412928409793721e-16
aF-2.347730562297852e-16
aF3.0790200524852936e-19
aF2.9442969289381256e-06
aF1.5273348877791069e-16
aF-1.6162046616548076e-15
aF-4.5038350322565077e-20
aF3.0359008411264496e-14
aF8.4276113149030883e-16
aF1.2892490015562452e-16
aF-1.3814799153876893e-17
aF-6.0606903908395715e-16
aF-1.1619676680028327e-11
aF-1.2787030394932716e-17
aF-1.7007676537523546e-17
aF-9.2441524711239639e-13
aF-3.8258817965961319e-10
aF3.0458300802617639e-12
aF2.1940946023024667e-11
aF1.2449991314966922e-07
aF-1.7829870987247965e-06
aF-5.6577544660533867e-08
aF-1.6529202332814563e-11
aF-3.6131329439846053e-05
aF2.2476055949923692e-11
aF1.1326322140771732e-10
aF1.3835973307726526e-09
aF1.1115814048130702e-09
aF3.3698871426003278e-09
aF6.9067622965798639e-13
aF5.2339116340195531e-10
aF7.8490738151813871e-11
aF2.2248382402462814e-09
aF7.6819521805011853e-12
aF1.8732136630413477e-06
aF0.012219645301486188
aF1.4209296253269606e-10
aF0.0060885457097388483
aF6.2491711962477051e-08
aF0.00011460151016073795
aF2.1770113772063048e-10
aF-8.7720305125698695e-05
aF9.618986387839807e-08
aF9.6922119567838842e-09
aF6.2687110343390439e-08
aF-3.9230156577024666e-09
aF2.3550490077060755e-09
aF1.0262177007811121e-05
aF9.7093260180264286e-09
aF-2.482083652088424e-07
aF1.063466737740186e-07
aF5.5245525923944448e-07
aF0.074187656711225916
aF2.3828837691744302e-05
aF0.00012528315126779653
aF0.00013873490619159133
aF0.00011870991273049479
aF-5.3398440755604931e-09
aF2.5169798910784778e-06
aF9.1953080152533491e-06
aF0.00020680364358889117
aF3.4006205018286813e-07
aF3.0884353558475589e-09
aF3.227496097319263e-11
aF1.0816292279597516e-09
aF0.12269908220090418
aF2.2830568846173164e-06
aF1.3305077654166504e-08
aF0.00025461097706949172
aF2.0757454724846526e-10
aF0.0015383433920378247
aF2.9529002137789725e-08
aF1.8092286592966988e-07
aF5.7245250016879633e-10
aF7.0588256131097194e-08
aF0.20391943603053794
aF8.2735333701428794e-06
aF7.7893544783530465e-11
aF1.1420680748703601e-12
aF1.0696648031631617e-10
aF1.4247944223402921e-10
aF1.4656214801513356e-11
aF2.1009077679331508e-09
aF1.4786240552094852e-07
aF4.0102716732507927e-12
aF1.2222626128969872e-09
aF1.8909444472115518e-10
aF1.1213153483546255e-11
aF4.8640217794404433e-10
aF5.748864999899583e-08
aF1.4739575183901969e-12
aF1.0747424886008897e-07
aF0.00011721435963092105
aF1.7055780925880972e-10
aF1.2204330015449314e-12
aF8.4152460202035194e-11
aF8.7100704157710337e-12
aF2.95765925903741e-12
aF7.91819817665653e-13
aF7.1613455211176115e-12
aF3.7496959575992901e-11
aF0.12268777561389708
aF2.2829335400317844e-06
aF2.3721425115176984e-09
aF0.00025460789345485346
aF3.5435871551755612e-11
aF1.557564589949872e-12
aF1.1871402421667919e-09
aF2.7753867977677126e-09
aF7.6794030590668605e-13
aF7.8189982937425359e-13
aF0.00016749064056525095
aF4.8851753758591574e-09
aF-1.7279137412848235e-19
aF-1.4477981875419827e-11
aF-1.9263340645437331e-14
aF-4.8658719482234221e-07
aF-1.5498349959232091e-09
aF-8.0255593596465476e-14
aF-5.6944597589645742e-06
aF-5.6187261834480156e-14
aF-3.91222300646843e-11
aF2.0866614683042217e-13
aF3.7103079199527848e-12
aF-6.4497500497534231e-12
aF4.4120255457589643e-10
aF-1.1341843001117824e-11
aF-1.2919214675761019e-12
aF-4.9431987246364335e-10
aF-4.0520546515997083e-14
aF-3.9016667656899953e-15
aF-1.0201275618704768e-10
aF-1.6373993729353647e-16
aF-2.8600217408734864e-16
aF-6.2072340371668746e-10
aF-2.0902487400001063e-15
aF-2.3981990552113024e-11
aF-6.6983407831774131e-08
aF-2.7876801414590538e-15
aF7.7898478566951745e-10
aF-1.9017679345919721e-11
aF-2.451041931396241e-10
aF-2.51439993349777e-12
aF-3.3816562718031592e-12
aF-1.0791109426718095e-13
aF-1.1126915060828568e-09
aF-4.3703761907110412e-12
aF-1.1351607780805763e-12
aF-4.6446328766411191e-14
aF-1.649075993699047e-15
aF1.4445295560253885e-15
aF2.719470585659939e-12
aF-6.6163063550832694e-13
aF-1.4232423363056827e-12
aF-7.6963629395774903e-14
aF-1.5690048002579515e-10
aF6.5291839628359364e-12
aF2.0471295286412625e-12
aF4.5373025297974839e-13
aF-4.4780868500267333e-12
aF-8.9474059557652446e-17
aF-7.8658178426673348e-09
aF-9.5153358211312048e-07
aF-6.3288517985012841e-08
aF-5.9416731445167934e-07
aF-4.3858867723416724e-06
aF-0.00084513140327561261
aF-3.3042267082355375e-11
aF-6.6255777564290809e-10
aF-5.0405381600519877e-12
aF5.3267284346322729e-05
aF-0.13777590203908116
aF-0.00044217080957232143
aF-2.2180337306111075e-07
aF-1.6734982216343539e-10
aF-4.3772218152080589e-10
aF-2.400316470596266e-08
aF-1.2625037839267547e-11
aF4.4911922122394925e-08
aF-6.147463306761231e-12
aF-3.3514985206406204e-12
aF2.8882368148138981e-07
aF1.4097772190517885e-07
aF-1.3049446000651735e-10
aF-2.492197908102036e-10
aF-3.1973280674412636e-08
aF-7.4562418676933528e-09
aF-6.3238255066408599e-07
aF-1.7019702634612901e-05
aF-6.621856861432203e-06
aF-4.5468822926071248e-12
aF9.1206742622911154e-10
aF-8.6060600940212978e-09
aF-2.0405614294616912e-10
aF-2.7863439084491256e-13
aF-2.8920810543963076e-06
aF-4.6744205940470616e-07
aF-0.0048565902681621496
aF-3.8982233960105641e-08
aF0.041132232873080474
aF-0.00029296703168371402
aF-5.3164908340331293e-13
aF-3.1212964091763365e-11
aF-1.4606465818682174e-06
aF-2.9792753976518679e-07
aF-2.3895340980776896e-11
aF-1.2655565624186681e-10
aF-1.4103014335402989e-06
aF-3.6863071193513782e-10
aF4.9880858750545676e-07
aF-1.2039562206609679e-08
aF-1.5088126425184066e-05
aF1.2131042774212469e-10
aF1.8819505711831874e-10
aF4.9768101241938628e-11
aF-7.1669063061820051e-10
aF-6.8067606738599143e-10
aF-3.7058161212963327e-11
aF-1.340128643088135e-09
aF-9.3314290441032108e-07
aF-3.1392841612330653e-07
aF-0.030703962102135249
aF5.0912327847055806e-13
aF-1.3615083712469898e-07
aF3.4693439934008463e-10
aF1.2176063547931597e-10
aF-1.8433026010498733e-06
aF-7.9776399881674227e-07
aF-1.5888221636667359e-09
aF-0.0059740922130807486
aF-4.6731151971835167e-08
aF1.6082489358880033e-08
aF2.1272932305215066e-07
aF2.4837693614240262e-10
aF6.1828734815243343e-08
aF-1.7350677272456711e-12
aF-5.5541655716375512e-07
aF-7.9652746934678544e-10
aF-4.4673558710854613e-07
aF5.454934852577174e-08
aF1.39002152793577e-07
aF5.5053622306287807e-11
aF6.0127504619295237e-12
aF-4.0658795238947372e-07
aF-0.014326781970988694
aF4.7718011443244607e-09
aF-1.4534309236146042e-10
aF-0.00014848735142097659
aF0.00042552031839706726
aF1.4851202033808295e-11
aF1.7413994159696396e-10
aF2.9952588001937037e-08
aF-2.5334875081088242e-08
aF-7.0079768077242124e-09
aF-1.5363801573847759e-10
aF2.5520200320849856e-09
aF2.0297790569431147e-12
aF1.0741360443886914e-30
aF2.3350157912726097e-24
aF6.739023938972003e-20
aF1.6859765822039931e-21
aF9.9903255412989148e-24
aF3.3752012384936584e-23
aF2.7563608954494241e-21
aF4.216956083740337e-21
aF5.7298904911585995e-25
aF9.6588061315356727e-24
aF6.1543294886891707e-24
aF3.4824082407517617e-25
aF1.3991593059805883e-22
aF2.6229534474812626e-18
aF8.8417715969726722e-21
aF2.4096392655193816e-25
aF3.1187986813193171e-22
aF3.1543938729607174e-24
aF1.2998874720583677e-19
aF3.2406220169629443e-19
aF1.3977100071005888e-25
aF2.6165395290336063e-25
aF1.333293297306578e-24
aF2.1231920230525726e-18
aF9.4337125416554999e-20
aF4.50147092770048e-23
aF2.8485609731344851e-24
aF1.3012134263528348e-24
aF9.2020302951648348e-24
aF2.6854788736304516e-21
aF1.4579432797019776e-18
aF3.9799289052099567e-23
aF3.1205357842322239e-20
aF3.1111924318781856e-21
aF2.1749350766831855e-26
aF3.3591972785209007e-22
aF4.099768448769614e-24
aF7.9573498038474333e-23
aF2.164224655172836e-23
aF2.0376525529862314e-25
aF3.1772434574304936e-16
aF6.3002666908042757e-19
aF3.619372124269425e-22
aF7.8183198985221117e-23
aF9.5429958444367235e-25
aF4.0313635973767399e-24
aF1.2760716883352587e-25
aF2.2524263125435726e-23
aF4.5927150848476694e-11
aF0.00151113563221259
aF2.8787495604434067e-07
aF5.6354702109339647e-08
aF5.2007936128042493e-05
aF0.0022744741572073915
aF9.0420934825918624e-08
aF1.6831807715986044e-08
aF5.8847290608629202e-11
aF2.0147926898009945e-10
aF5.4235128194129344e-10
aF2.9403190660547233e-11
aF6.0071999555805906e-12
aF1.4503473089763078e-10
aF2.7596706418278621e-05
aF9.9201013572694453e-06
aF2.3138621948538972e-09
aF3.1785899691558827e-10
aF0.019548472212325134
aF4.2363417410997595e-09
aF2.4368470253446167e-11
aF8.5547795825864299e-10
aF8.9850466117833807e-11
aF1.0675268303472762e-06
aF5.7515066297730569e-08
aF1.7022477887787372e-09
aF4.9306792492049505e-07
aF4.5035266707926783e-12
aF3.8687543187839127e-06
aF1.8330136068734245e-08
aF1.4516115909780091e-11
aF1.3699780327868437e-12
aF1.3300657806518279e-05
aF4.8051555759953667e-05
aF4.1721717204768123e-11
aF0.009009787479897979
aF2.6179168769053787e-08
aF3.8682814978727065e-11
aF2.2439772084346407e-07
aF5.4991641652058045e-12
aF2.9422617432768506e-06
aF0.11200202302065411
aF1.049919390762604e-08
aF1.2964338236634756e-11
aF4.2545042313193249e-06
aF4.646606390009629e-09
aF2.7844526248043039e-07
aF7.1337060552430147e-11
aF1.6494357487401815e-09
aF7.4076646584247251e-11
aF3.2479199049402461e-14
aF6.518226852154524e-11
aF4.3341951122883639e-06
aF1.1731303529934655e-09
aF7.5636750016915984e-05
aF3.0543100205170788e-10
aF5.3947324161221686e-05
aF6.736608440838672e-13
aF4.3880041877266353e-07
aF1.5374799799391016e-09
aF1.0937067186264122e-08
aF1.6042813517200616e-10
aF1.0038532716810948e-12
aF3.4624058604646795e-06
aF6.1708268270040563e-12
aF8.3997971108656536e-08
aF1.1169160581373228e-09
aF1.4237357146478101e-11
aF-4.9789686544406707e-06
aF1.6719564143152057e-07
aF1.4833317068906177e-06
aF1.6210048217750889e-11
aF1.3187078000674363e-10
aF3.4696934697265195e-13
aF-1.2046037797350103e-10
aF7.797145744672476e-08
aF5.6551128361799132e-12
aF6.1650090740531372e-09
aF4.0205195525653983e-10
aF7.9640206901816135e-11
aF5.7618264600958879e-10
aF0.0014399041340679439
aF1.5218049388610954e-08
aF1.2197340488935844e-06
aF-2.4227240703012195e-13
aF1.2365294699568386e-11
aF3.4997175975880654e-11
aF-3.4688917299205624e-08
aF3.026804177943475e-10
aF4.0233359206017085e-09
aF0.080625421778751816
aF6.3845932724462204e-08
aF1.9725060543944907e-05
aF-6.5524755320705351e-09
aF4.4507865817623494e-09
aF-2.9007151753835374e-12
aF-1.3974530392140644e-07
aF-1.3273521997701269e-13
aF8.6051041734834255e-17
aF1.6052886658352386e-08
aF-4.0749556296467894e-12
aF-1.7803865837131667e-13
aF1.1688441286462334e-09
aF1.8718363151695755e-14
aF7.0555055880158195e-08
aF3.8710773084780954e-11
aF0.00016203675414165077
aF2.5202485225950723e-08
aF1.5934784217705635e-09
aF5.900219085062629e-10
aF6.0353944720900803e-15
aF-9.9439788132853202e-16
aF-1.8000908812518803e-12
aF-2.4849822498484228e-11
aF2.7790357417563631e-12
aF-1.3972783010512276e-10
aF-7.7896217249550321e-10
aF4.2543808867337937e-06
aF8.2180385853690074e-11
aF-1.0406274319858709e-09
aF5.6057441658207881e-09
aF-8.1709826259886045e-06
aF6.2932771642908033e-07
aF-4.7677102155709873e-15
aF9.8163891182680781e-14
aF1.5012166717927365e-10
aF1.0537122367677085e-10
aF-4.2219412607389157e-13
aF-5.9492691152424628e-12
aF9.7096549369211802e-16
aF-4.1377174662515815e-13
aF2.4573222265429046e-12
aF-1.6675468453824418e-12
aF-7.2314360818460875e-12
aF-1.5150209866568434e-12
aF-4.1517993064331347e-13
aF4.591348015691358e-13
aF-1.9871326664954762e-10
aF-3.6638275686381974e-10
aF0.12313387186490396
aF-1.639701805198626e-10
aF6.2044896201387909e-12
aF-7.2699401499629473e-11
aF5.9483543095664356e-14
aF7.6257790005068867e-11
aF3.5476472477826518e-11
aF-5.7342589452295195e-15
aF8.8393355414084166e-09
aF-1.4032193985876785e-10
aF-1.1264135912232757e-11
aF4.8264119595686896e-11
aF2.6669566283697516e-13
aF-1.5467205451385298e-11
aF-5.9806911484067033e-15
aF4.9009737615226954e-14
aF-3.2877910422134178e-15
aF-3.1483294308387347e-16
aF-3.5825434867727059e-14
aF1.8182430927559847e-13
aF-7.6346186958033354e-14
aF-1.1651951846575826e-13
aF1.4085643306273921e-11
aF-1.3573146553389067e-12
aF-2.0816968487365645e-13
aF-2.5692779953439839e-16
aF-2.1111556472477556e-15
aF-1.8508780143446212e-12
aF-6.8949726099461121e-14
aF-9.9887734552643059e-10
aF3.471862278688788e-13
aF-1.0352927786616183e-16
aF2.885142921460141e-15
aF-5.3113823124490174e-08
aF-2.607843735753611e-12
aF-3.6243367438370819e-09
aF-1.8871207650600644e-10
aF-2.2649457879750561e-08
aF4.3751455146849396e-13
aF-2.0809773386542954e-15
aF4.1311802032183932e-12
aF-2.8706807688065306e-15
aF-1.7281809878868093e-15
aF1.9328199339996164e-15
aF-2.6175879580106271e-14
aF1.5911759895073022e-12
aF1.6146936904820425e-08
aF-5.1406117337801664e-12
aF3.6035429024595039e-12
aF2.9074580127259452e-06
aF-1.5804861254278749e-13
aF-2.0389579498497771e-14
aF1.3444970971590547e-16
aF5.6475785377470093e-17
aF2.6065794537519093e-20
aF4.1731687558765279e-20
aF7.9149398238553961e-20
aF4.4775420781073008e-17
aF2.653902659734297e-20
aF1.1097106785991703e-14
aF1.4765683121172875e-19
aF9.4884878163471055e-16
aF3.0457067356762321e-14
aF2.8274382128621553e-18
aF9.8813711574124439e-14
aF9.7022028682119632e-14
aF1.3482179921559326e-17
aF9.0321539647410881e-19
aF9.5410120523527534e-19
aF3.6633958625888359e-15
aF3.2155213938072125e-17
aF7.5021671683730467e-16
aF2.0914616284245033e-17
aF1.2051177155080596e-13
aF7.7221830728154913e-14
aF2.8652638857585903e-13
aF1.103276202720592e-13
aF1.5732499097433393e-11
aF8.6822870478799833e-09
aF4.7767863213230398e-12
aF1.0566108345277071e-11
aF7.7147207253908136e-18
aF4.8460134699527924e-15
aF8.1571783111244964e-16
aF6.3211119257591604e-17
aF1.5573795730715742e-18
aF1.1995158155818211e-19
aF5.4272439931252736e-18
aF2.0148954769556042e-16
aF5.4246023632517992e-16
aF7.2765699214352854e-19
aF1.0943337202695326e-12
aF3.5271000955761373e-13
aF3.4689739596442507e-17
aF3.6265569463766555e-09
aF2.46872132198914e-17
aF9.4991571229956106e-18
aF2.0262226213936131e-17
aF1.4598242846313385e-06
aF3.3533486894235986e-13
aF7.7879668517658139e-14
aF-6.1575672840593811e-13
aF-1.2493367494212293e-10
aF-6.3966810418283425e-11
aF-2.4414313324402174e-09
aF-6.652631335522401e-12
aF-3.2147093752857946e-11
aF-5.4885976457119093e-09
aF-3.5546367742961237e-11
aF-8.5653974956576306e-13
aF-1.540429971276405e-08
aF-0.00011460048228919184
aF-5.5666953257844953e-11
aF-7.8169322719348775e-11
aF-1.1419755664312112e-12
aF-1.434106938547947e-10
aF-1.4246813564702211e-10
aF1.6874567172303756e-11
aF-2.09465830893287e-09
aF-1.4786240552094852e-07
aF-4.0259569930442603e-12
aF-1.2223037277588313e-09
aF-1.8899165756654534e-10
aF-1.1020221994343514e-11
aF-4.8636106308220042e-10
aF-5.7498003630065326e-08
aF-1.2734506158927067e-12
aF-1.0747322098854287e-07
aF-0.00011721435963092105
aF-1.70550614157987e-10
aF2.9497754842788325e-12
aF5.1777076178788709e-08
aF7.6786938277000524e-08
aF-2.9566313874913115e-12
aF-7.7900020374270886e-13
aF-7.1613352424021501e-12
aF-3.74949038329007e-11
aF-0.12263843777968435
aF-2.2829335400317844e-06
aF-2.3680721401951469e-09
aF-0.00025460789345485346
aF-3.5434226957281858e-11
aF-1.4733099593161546e-12
aF-1.1872738654677846e-09
aF-2.7753970764831738e-09
aF-7.5879122127486071e-13
aF-7.8172097972523238e-13
aF0.00022525599358445657
aF-4.8821842696600089e-09
aF8.1144496909531705e-24
aF1.213186507144935e-23
aF6.8176869483949434e-19
aF4.6970954403540015e-22
aF5.864716401860377e-23
aF6.1034704045882029e-23
aF9.341779710572425e-17
aF1.5893258207243246e-19
aF2.9727278559032187e-22
aF1.2705109032708642e-20
aF7.9845986785345111e-21
aF1.6794187617398829e-18
aF1.7571052931940292e-19
aF1.7888459665375596e-18
aF1.1171627473083866e-18
aF1.7886403922283401e-18
aF1.4687976032287808e-18
aF2.4328177688839094e-20
aF2.7776481151691295e-17
aF4.7595078006331189e-19
aF1.7943553580246491e-21
aF2.251223702834637e-20
aF1.7263410978192925e-20
aF1.9129511770135271e-20
aF3.8394908158664803e-17
aF1.2155608904164233e-19
aF1.3024057573463096e-15
aF6.3815816088161513e-23
aF8.5018030831004975e-20
aF3.3179693508068781e-21
aF4.5642019281588885e-20
aF9.0806900591478719e-22
aF2.7277963451833389e-22
aF1.6523549039311018e-20
aF2.8310357632735005e-24
aF6.0449331200378774e-17
aF2.3989699588708762e-20
aF6.7141494475564132e-20
aF2.115041001692009e-21
aF2.8179304010607411e-21
aF7.8298115024074955e-22
aF1.6207375751731032e-17
aF6.1362492281932938e-20
aF4.9583598299413897e-18
aF9.4485241706347847e-19
aF1.6991127805631357e-17
aF9.2743924520101889e-13
aF3.8443834844259102e-10
a.