(lp1
F5.3174220560672303e-312
aF5.3174220560672303e-312
aF1.2743138763795767e-318
aF1.2743138763795767e-318
aF0
aF0
aF0
aF0
aF0
aF0
aF0
aF0
aF0
aF0
aF0
aF0
aF0
aF0
aF0
aF0
aF0
aF0
aF0
aF0
aF0
aF0
aF0
aF0
aF0
aF0
aF0
aF0
aF0
aF0
aF0
aF0
aF0
aF0
aF0
aF0
aF0
aF0
aF0
aF0
aF0
aF0
aF0
aF0
aF0
aF0
aF0
aF0
aF0
aF0
aF0
aF0
aF0
aF0
aF0
aF0
aF0
aF0
aF0
aF0
aF0
aF0
aF0
aF0
aF0
aF0
aF0
aF0
aF0
aF0
aF0
aF0
aF0
aF0
aF0
aF0
aF0
aF0
aF0
aF0
aF0
aF0
aF0
aF0
aF0
aF0
aF0
aF0
aF0
aF0
aF0
aF0
aF0
aF0
aF0
aF0
aF0
aF0
aF0
aF0
aF0
aF0
aF0
aF0
aF0
aF0
aF0
aF0
aF0
aF0
aF0
aF0
aF0
aF0
aF0
aF0
aF0
aF0
aF0
aF0
aF0
aF0
aF0
aF0
aF0
aF0
aF0
aF0
aF0
aF0
aF0
aF0
aF0
aF0
aF0
aF0
aF0
aF0
aF0
aF0
aF0
aF0
aF0
aF0
aF0
aF0
aF0
aF0
aF0
aF0
aF0
aF0
aF0
aF0
aF0
aF0
aF0
aF0
aF0
aF0
aF0
aF0
aF0
aF0
aF0
aF0
aF0
aF0
aF0
aF0
aF0
aF0
aF0
aF0
aF0
aF0
aF0
aF0
aF0
aF0
aF0
aF0
aF0
aF0
aF0
aF0
aF0
aF0
aF0
aF0
aF0
aF0
aF0
aF0
aF0
aF0
aF0
aF0
aF0
aF0
aF0
aF0
aF0
aF0
aF0
aF0
aF0
aF0
aF0
aF0
aF0
aF0
aF0
aF0
aF0
aF0
aF0
aF0
aF0
aF0
aF0
aF0
aF0
aF0
aF0
aF0
aF0
aF0
aF0
aF0
aF0
aF0
aF0
aF0
aF0
aF0
aF0
aF0
aF0
aF0
aF0
aF0
aF0
aF0
aF0
aF0
aF0
aF0
aF0
aF0
aF0
aF0
aF0
aF0
aF0
aF0
aF0
aF0
aF0
aF0
aF0
aF0
aF0
aF0
aF0
aF0
aF0
aF0
aF0
aF0
aF0
aF0
aF0
aF0
aF0
aF0
aF0
aF0
aF0
aF0
aF0
aF0
aF0
aF0
aF0
aF0
aF0
aF0
aF0
aF0
aF0
aF0
aF0
aF0
aF0
aF0
aF0
aF0
aF0
aF0
aF0
aF0
aF0
aF0
aF0
aF0
aF0
aF0
aF0
aF0
aF0
aF0
aF0
aF0
aF0
aF0
aF0
aF0
aF0
aF0
aF0
aF0
aF0
aF0
aF0
aF0
aF0
aF0
aF0
aF0
aF0
aF0
aF0
aF0
aF0
aF0
aF0
aF0
aF0
aF0
aF0
aF0
aF0
aF0
aF0
aF0
aF0
aF0
aF0
aF0
aF0
aF0
aF0
aF0
aF0
aF0
aF0
aF0
aF0
aF0
aF0
aF0
aF0
aF0
aF0
aF0
aF0
aF0
aF0
aF0
aF0
aF0
aF0
aF0
aF0
aF0
aF0
aF0
aF0
aF0
aF0
aF0
aF0
aF0
aF0
aF0
aF0
aF0
aF0
aF0
aF0
aF0
aF0
aF0
aF0
aF0
aF0
aF0
aF0
aF0
aF0
aF0
aF0
aF0
aF0
aF0
aF0
aF0
aF0
aF0
aF0
aF0
aF0
aF0
aF0
aF0
aF0
aF0
aF0
aF0
aF0
aF0
aF0
aF0
aF0
aF0
aF0
aF0
aF0
aF0
aF0
aF0
aF0
aF0
aF0
aF0
aF0
aF0
aF0
aF0
aF0
aF0
aF0
aF0
aF0
aF0
aF0
aF0
aF0
aF0
aF0
aF0
aF0
aF0
aF0
aF0
aF0
aF0
aF0
aF0
aF0
aF0
aF0
aF0
aF0
aF0
aF0
aF0
aF0
aF0
aF0
aF0
aF0
aF0
aF0
aF0
aF0
aF0
aF0
aF0
aF0
aF0
aF0
aF0
aF0
aF0
aF0
aF0
aF0
aF0
aF0
aF0
aF0
aF0
aF0
aF0
aF0
aF0
aF0
aF0
aF0
aF0
aF0
aF0
aF0
aF0
aF0
aF0
aF0
aF0
aF0
aF0
aF0
aF0
aF0
aF0
aF0
aF0
aF0
aF0
aF0
aF0
aF0
aF0
aF0
aF0
aF0
aF0
aF0
aF0
aF0
aF0
aF0
aF0
aF0
aF0
aF0
aF0
aF0
aF0
aF0
aF0
aF0
aF0
aF0
aF0
aF0
aF0
aF0
aF0
aF0
aF0
aF0
aF0
aF0
aF0
aF0
aF0
aF0
aF0
aF0
aF0
aF0
aF0
aF0
aF0
aF0
aF0
aF0
aF0
aF0
aF0
aF0
aF0
aF0
aF0
aF0
aF0
aF0
aF0
aF0
aF0
aF0
aF0
aF0
aF0
aF0
aF0
aF0
aF0
aF0
aF0
aF0
aF0
aF0
aF0
aF0
aF0
aF0
aF0
aF0
aF0
aF0
aF0
aF0
aF0
aF0
aF0
aF0
aF0
aF0
aF0
aF0
aF0
aF0
aF0
aF0
aF0
aF0
aF0
aF0
aF0
aF0
aF0
aF0
aF0
aF0
aF0
aF0
aF0
aF0
aF0
aF0
aF0
aF0
aF0
aF0
aF0
aF0
aF0
aF0
aF0
aF0
aF0
aF0
aF0
aF0
aF0
aF0
aF0
aF0
aF0
aF0
aF0
aF0
aF0
aF0
aF0
aF0
aF0
aF0
aF0
aF0
aF0
aF0
aF0
aF0
aF0
aF0
aF0
aF0
aF0
aF0
aF0
aF0
aF0
aF0
aF0
aF0
aF0
aF0
aF0
aF0
aF0
aF0
aF0
aF0
aF0
aF0
aF0
aF0
aF0
aF0
aF0
aF0
aF0
aF0
aF0
aF0
aF0
aF0
aF0
aF0
aF0
aF0
aF0
aF0
aF0
aF0
aF0
aF0
aF0
aF0
aF0
aF0
aF0
aF0
aF0
aF0
aF0
aF0
aF0
aF0
aF0
aF0
aF0
aF0
aF0
aF0
aF0
aF0
aF0
aF0
aF0
aF0
aF0
aF0
aF0
aF0
aF0
aF0
aF0
aF0
aF0
aF0
aF0
aF0
aF0
aF0
aF0
aF0
aF0
aF0
aF0
aF0
aF0
aF0
aF0
aF0
aF0
aF0
aF0
aF0
aF0
aF0
aF0
aF0
aF0
aF0
aF0
aF0
aF0
aF0
aF0
aF0
aF0
aF0
aF0
aF0
aF0
aF0
aF0
aF0
aF0
aF0
aF0
aF0
aF0
aF0
aF0
aF0
aF0
aF0
aF0
aF0
aF0
aF0
aF0
aF0
aF0
aF0
aF0
aF0
aF0
aF0
aF0
aF0
aF0
aF0
aF0
aF0
aF0
aF0
aF0
aF0
aF0
aF0
aF0
aF0
aF0
aF0
aF0
aF0
aF0
aF0
aF0
aF0
aF0
aF0
aF0
aF0
aF0
aF0
aF0
aF0
aF0
aF0
aF0
aF0
aF0
aF0
aF0
aF0
aF0
aF0
aF0
aF0
aF0
aF0
aF0
aF0
aF0
aF0
aF0
aF0
aF0
aF0
aF0
aF0
aF0
aF0
aF0
aF0
aF0
aF0
aF0
aF0
aF0
aF0
aF0
aF0
aF0
aF0
aF0
aF0
aF0
aF0
aF0
aF0
aF0
aF0
aF0
aF0
aF0
aF0
aF0
aF0
aF0
aF0
aF0
aF0
aF0
aF0
aF0
aF0
aF0
aF0
aF0
aF0
aF0
aF0
aF0
aF0
aF0
aF0
aF0
aF0
aF0
aF0
aF0
aF0
aF0
aF0
aF0
aF0
aF0
aF0
aF0
aF0
aF0
aF0
aF0
aF0
aF0
aF0
aF0
aF0
aF0
aF0
aF0
aF0
aF0
aF0
aF0
aF0
aF0
aF0
aF0
aF0
aF0
aF0
aF0
aF0
aF0
aF0
aF0
aF0
aF0
aF0
aF0
aF0
aF0
aF0
aF0
aF0
aF0
aF0
aF0
aF0
aF0
aF0
aF0
aF0
aF0
aF0
aF0
aF0
aF0
aF0
aF0
aF0
aF0
aF0
aF0
aF0
aF0
aF0
aF0
aF0
aF0
aF0
aF0
aF0
aF0
aF0
aF0
aF0
aF0
aF0
aF0
aF0
aF0
aF0
aF0
aF0
aF0
aF0
aF0
aF0
aF0
aF0
aF0
aF0
aF0
aF0
aF0
aF0
aF0
aF0
aF0
aF0
aF0
aF0
aF0
aF0
aF0
aF0
aF0
aF0
aF0
aF0
aF0
aF0
aF0
aF0
aF0
aF0
aF0
aF0
aF0
aF0
aF0
aF0
aF0
aF0
aF0
aF0
aF0
aF0
aF0
aF0
aF0
aF0
aF0
aF0
aF0
aF0
aF0
aF0
aF0
aF0
aF0
aF0
aF0
aF0
aF0
aF0
aF0
aF0
aF0
aF0
aF0
aF0
aF0
aF0
aF0
aF0
aF0
aF0
aF0
aF0
aF0
aF0
aF0
aF0
aF0
aF0
aF0
aF0
aF0
aF0
aF0
aF0
aF0
aF0
aF0
aF0
aF0
aF0
aF0
aF0
aF0
aF0
aF0
aF0
aF0
aF0
aF0
aF0
aF0
aF0
aF0
aF0
aF0
aF0
aF0
aF0
aF0
aF0
aF0
aF0
aF0
aF0
aF0
aF0
aF0
aF0
aF0
aF0
aF0
aF0
aF0
aF0
aF0
aF0
aF0
aF0
aF0
aF0
aF0
aF0
aF0
aF0
aF0
aF0
aF0
aF0
aF0
aF0
aF0
aF0
aF0
aF0
aF0
aF0
aF0
aF0
aF0
aF0
aF0
aF0
aF0
aF0
aF0
aF0
aF0
aF0
aF0
aF0
aF0
aF0
aF0
aF0
aF0
aF0
aF0
aF0
aF0
aF0
aF0
aF0
aF0
aF0
aF0
aF0
aF0
aF0
aF0
aF0
aF0
aF0
aF0
aF0
aF0
aF0
aF0
aF0
aF0
aF0
aF0
aF0
aF0
aF0
aF0
aF0
aF0
aF0
aF0
aF0
aF0
aF0
aF0
aF0
aF0
aF0
aF0
aF0
aF0
aF0
aF0
aF0
aF0
aF0
aF0
aF0
aF0
aF0
aF0
aF0
aF0
aF0
aF0
aF0
aF0
aF0
aF0
aF0
aF0
aF0
aF0
aF0
aF0
aF0
aF0
aF0
aF0
aF0
aF0
aF0
aF0
aF0
aF0
aF0
aF0
aF0
aF0
aF0
aF0
aF0
aF0
aF0
aF0
aF0
aF0
aF0
aF0
aF0
aF0
aF0
aF0
aF0
aF0
aF0
aF0
aF0
aF0
aF0
aF0
aF0
aF0
aF0
aF0
aF0
aF0
aF0
aF0
aF0
aF0
aF0
aF0
aF0
aF0
aF0
aF0
aF0
aF0
aF0
aF0
aF0
aF0
aF0
aF0
aF0
aF0
aF0
aF0
aF0
aF0
aF0
aF0
aF0
aF0
aF0
aF0
aF0
aF0
aF0
aF0
aF0
aF0
aF0
aF0
aF0
aF0
aF0
aF0
aF0
aF0
aF0
aF0
aF0
aF0
aF0
aF0
aF0
aF0
aF0
aF0
aF0
aF0
aF0
aF0
aF0
aF0
aF0
aF0
aF0
aF0
aF0
aF0
aF0
aF0
aF0
aF0
aF0
aF0
aF0
aF0
aF0
aF0
aF0
aF0
aF0
aF0
aF0
aF0
aF0
aF0
aF0
aF0
aF0
aF0
aF0
aF0
aF0
aF0
aF0
aF0
aF0
aF0
aF0
aF0
aF0
aF0
aF0
aF0
aF0
aF0
aF0
aF0
aF0
aF0
aF0
aF0
aF0
aF0
aF0
aF0
aF0
aF0
aF0
aF0
aF0
aF0
aF0
aF0
aF0
aF0
aF0
aF0
aF0
aF0
aF0
aF0
aF0
aF0
aF0
aF0
aF0
aF0
aF0
aF0
aF0
aF0
aF0
aF0
aF0
aF0
aF0
aF0
aF0
aF0
aF0
aF0
aF0
aF0
aF0
aF0
aF0
aF0
aF0
aF0
aF0
aF0
aF0
aF0
aF0
aF0
aF0
aF0
aF0
aF0
aF6.8896949863283028e-124
aF1.4931541483936549e-134
aF1.385246851164752e-133
aF1.6550189123424943e-133
aF5.0032377918816699e-135
aF2.7297086995342618e-135
aF7.4665343630653575e-132
aF9.757855826974817e-134
aF6.7299530890293569e-128
aF6.9503952273354889e-128
aF7.7099004067059436e-126
aF3.9722500400760048e-125
aF9.8652209532247895e-131
aF8.010385308408395e-135
aF1.7272116508607907e-133
aF1.0130273836022555e-130
aF1.3711122246577319e-128
aF1.2968042557005137e-129
aF5.3419342932821896e-130
aF3.897873345220049e-133
aF7.4418235843637277e-129
aF3.8686801106785381e-133
aF2.4244282573421255e-130
aF7.7175366176767813e-132
aF2.5488450426899786e-132
aF1.5668054032073813e-132
aF6.904028154320564e-126
aF9.1669658220514217e-128
aF3.5082662252769561e-134
aF1.5572601394938344e-130
aF4.2235348344933498e-128
aF7.589103185358268e-129
aF3.8911611157766829e-134
aF9.5597725143912957e-135
aF6.8370204030514669e-128
aF1.6911458264455259e-129
aF1.7930052445855254e-130
aF7.1598794028984706e-132
aF1.2913520010673358e-125
aF1.7277767304726328e-128
aF5.5851094316485057e-134
aF6.6082318861542087e-133
aF2.5686686463702721e-131
aF2.6587530271932408e-127
aF1.0244817000585115e-135
aF4.8702760864574497e-131
aF1.4700240653629884e-128
aF9.1685694263552977e-134
aF1.0754610444998217e-130
aF7.1637815067045691e-131
aF2.1961971838457383e-134
aF4.7147646500363464e-132
aF5.4709328052125463e-134
aF1.2024054156790221e-133
aF2.8199763494205299e-134
aF5.0159139020932597e-133
aF3.4681303004142344e-136
aF1.2176625651987553e-132
aF5.8087664147733625e-129
aF2.435103680279356e-131
aF1.4846855904269961e-134
aF1.4402199339438101e-132
aF9.4583636326985759e-134
aF4.7528769789917953e-137
aF4.8924745517496735e-135
aF3.496514096592837e-133
aF1.4178000185334315e-131
aF1.0453896456966644e-135
aF2.1591386520042645e-131
aF3.9890955214776718e-131
aF1.1967164385057482e-128
aF9.5060135891566006e-134
aF6.4719102479028198e-134
aF1.9144362714437811e-135
aF1.6513000775996966e-135
aF1.0618685889717313e-124
aF2.6439616865427287e-136
aF6.0754687191408273e-134
aF2.1660723315657851e-133
aF5.4271314990838222e-136
aF7.6519415654372881e-136
aF3.0269176667302227e-136
aF3.6407468494100129e-129
aF1.9905922034559424e-128
aF8.0458173273130794e-131
aF1.1438204051107579e-132
aF4.4338055397863271e-129
aF3.9237142831453623e-131
aF1.6240006233789529e-134
aF5.6926043734849841e-135
aF1.1478599607143307e-133
aF3.941621197871976e-133
aF4.9461189338198062e-136
aF2.6559276291340312e-133
aF1.8063380689406076e-134
aF2.0821427367853114e-132
aF3.6671986842129938e-180
aF4.8125005142520941e-183
aF1.9200717951402593e-183
aF1.457317410307515e-186
aF9.0990799065206784e-176
aF6.0037494257027229e-185
aF7.0679470590205599e-182
aF5.6158069997512724e-183
aF3.6606697238329279e-175
aF6.7704937330735318e-176
aF2.1806804031529967e-185
aF5.1203696319633439e-185
aF2.2193196306654338e-177
aF1.8860372028432371e-177
aF3.2954297530977765e-186
aF8.054675332039252e-186
aF1.1717078475762559e-181
aF3.2441755050615165e-186
aF9.024168676896763e-186
aF4.0230155706101316e-172
aF5.7905235067640307e-175
aF8.5860028913901154e-176
aF2.1887747867820845e-176
aF5.213004507250572e-174
aF3.6628460439596164e-182
aF1.4605398913372083e-171
aF6.9095949521183044e-183
aF4.9531900651788014e-181
aF2.310579987977911e-181
aF4.7803826109087524e-184
aF8.0025963732181398e-184
aF6.5575350815188194e-183
aF6.9969761142575973e-180
aF2.7209346931287694e-182
aF2.5703867938387106e-184
aF2.772799838042697e-185
aF5.1271658597273899e-183
aF1.539666309417025e-181
aF1.0721011116726534e-179
aF3.589790413601616e-185
aF5.4256882552103342e-176
aF2.0782711778230969e-183
aF1.0823718154284295e-182
aF1.3586575645642962e-183
aF2.425627142464547e-183
aF6.9451033331326984e-178
aF7.6263297138411e-180
aF3.7463098298708685e-182
aF2.2271391106995713e-182
aF5.0265511439756363e-184
aF3.2698637187674128e-179
aF9.9266160894303233e-184
aF1.5333282543112301e-176
aF3.7400099558199282e-182
aF8.6651140370479903e-181
aF1.0395632167259153e-182
aF3.4702760756970397e-174
aF1.8052079097169236e-179
aF4.2642205665459722e-183
aF6.5811157009967648e-183
aF1.9899125806795377e-180
aF8.4252606504539885e-181
aF5.2448780518428475e-184
aF9.2880761280489013e-184
aF5.7278989405921938e-183
aF1.4426864300873904e-183
aF0
aF0
aF0
aF0
aF0
aF0
aF0
aF0
aF0
aF0
aF0
aF0
aF1.0759421257909846e-83
aF3.0242679015233419e-86
aF8.8163873763802784e-92
aF5.575487805825251e-87
aF3.6347753324308181e-83
aF1.4279179980697911e-87
aF4.8147455602775203e-85
aF7.0480547294415274e-88
aF1.1365507322665206e-88
aF2.0256424118120858e-91
aF4.9250964450170908e-87
aF1.7122675859908622e-91
aF5.6204116349666871e-86
aF2.1140162813775866e-87
aF1.5968768020105388e-88
aF2.8372341862146225e-84
aF2.7989920416726688e-88
aF1.2334924305413009e-88
aF3.29080984546042e-87
aF1.1952121049444934e-91
aF1.3469512531460027e-89
aF5.7066168206164706e-91
aF2.8812111251956748e-89
aF7.0870910399244489e-86
aF0.0021174449401034925
aF1.1977244183538988e-17
aF6.3756481724044438e-15
aF4.0324233825262033e-16
aF2.2731243731659538e-15
aF5.1578634278301557e-19
aF4.6129128681073181e-11
aF8.3468367637834888e-18
aF1.5366270974506318e-09
aF5.0888168082318443e-15
aF1.2704211467962705e-09
aF1.9527089608296182e-14
aF1.9012943523629701e-08
aF5.4459547591269367e-20
aF1.6621129523344022e-12
aF6.0770188699679078e-18
aF1.3961895414859618e-17
aF2.1500591971599391e-13
aF8.7976786595017259e-16
aF3.0995380330628861e-16
aF4.4893207935443151e-12
aF5.6021152734805614e-13
aF4.6030850645878506e-12
aF1.0793707845168905e-11
aF5.7602077492098062e-06
aF4.1582452306926902e-17
aF5.4468634682324673e-16
aF6.4104082047436958e-16
aF7.0466573028338657e-17
aF2.0107747090518653e-11
aF7.8646864030848174e-13
aF3.4232370161166822e-18
aF2.4642205527111587e-18
aF1.4771410139878089e-18
aF3.2218548603937588e-11
aF5.7910122242661644e-12
aF6.138307099219848e-06
aF2.5418655458626332e-15
aF1.3278454532969676e-10
aF4.44340425697667e-11
aF3.217418221819702e-19
aF2.5539307591965565e-19
aF2.08404415331705e-17
aF1.9316711996049614e-10
aF4.6798518934776783e-11
aF8.0765912575255541e-16
aF9.8303234690880635e-06
aF9.1545951602786648e-18
aF2.0594250091470702e-05
aF9.6377382284035441e-16
aF1.2653201578677512e-15
aF5.333626095745919e-15
aF1.0452827387430725e-14
aF2.0970791654442694e-15
aF8.9509374136864319e-11
aF9.3477149357311424e-16
aF7.5239663057770259e-05
aF7.0740942088520833e-16
aF5.4486808864435261e-07
aF7.4572258218919064e-08
aF2.4912527395479232e-05
aF3.6466114594356168e-14
aF3.2393876007828013e-15
aF2.1701500682242119e-11
aF1.3848726768271808e-12
aF1.0449162006164722e-08
aF9.3633691682213584e-15
aF7.4567447406007439e-11
aF3.8323012016134685e-10
aF1.9580924895640588e-09
aF1.6228399193113857e-10
aF9.0263831780783062e-12
aF1.2187927244224392e-12
aF4.8713986094701627e-13
aF3.0421060903512181e-12
aF3.5989462305556495e-10
aF2.7226146595423539e-08
aF1.7984804078516161e-10
aF1.0436944068611385e-11
aF6.0973922808381015e-14
aF1.1432247806550326e-14
aF2.675453420586462e-14
aF0.00052026268965412045
aF4.14209464448937e-12
aF2.7535184053413325e-14
aF4.7100989251331648e-17
aF7.0925432945576268e-12
aF7.7762590800425219e-09
aF4.7149784639435301e-15
aF2.3568630626721564e-12
aF4.5480432559100547e-08
aF2.3726700193817895e-09
aF3.2952464840344767e-08
aF5.3857355994109137e-11
aF3.2260929574825734e-10
aF1.3027757726797085e-14
aF2.8123859557155174e-20
aF1.4622274939617634e-09
aF7.0721698836874328e-13
aF2.1222404805931784e-11
aF1.8902982085649644e-11
aF5.1023787189160514e-12
aF1.7532358578494044e-13
aF3.9535947766742493e-13
aF1.0195181629274671e-18
aF1.9188423651739544e-18
aF3.3343667928380763e-18
aF3.1087320310717742e-19
aF3.835836767292966e-18
aF2.9391470578314178e-16
aF3.133755894423208e-15
aF4.7636593088826185e-16
aF5.3320301276530139e-18
aF1.6522927850259054e-18
aF1.6656637904358417e-15
aF5.5809400604584286e-19
aF6.4160819094950276e-15
aF1.6533847631947351e-17
aF1.1332442529161481e-14
aF5.4346226220462138e-17
aF0.0076313161596050566
aF1.6128670277834721e-15
aF3.1046084771475216e-16
aF2.3424000790933907e-13
aF7.5693559437876822e-12
aF3.2496201234837235e-15
aF5.8004047637602946e-12
aF4.0448856788306101e-15
aF1.9117559613930175e-12
aF2.5163300563761533e-15
aF1.5600168116543066e-12
aF7.92325614123114e-11
aF7.1485090847628945e-15
aF3.3922721806299362e-17
aF6.9443397120356148e-14
aF1.511587961677256e-16
aF3.4452369399236645e-12
aF4.9380474588236314e-14
aF9.3077011902439544e-15
aF7.6444580786858677e-09
aF1.0873888060362699e-15
aF2.7868733748619497e-16
aF1.3982513184480879e-14
aF2.6803482318187688e-14
aF2.031117575078176e-09
aF4.8811653233018635e-06
aF1.1911267320750954e-09
aF1.6763773944279265e-09
aF2.0714291327932265e-11
aF8.4869612350983548e-11
aF2.7772899300935492e-13
aF2.0783933571986301e-11
aF7.9330304912738121e-13
aF2.2144553642770102e-16
aF8.6532015479334842e-17
aF4.4593104844289245e-16
aF3.6831812737749567e-14
aF4.28281474025996e-13
aF3.9724256729283342e-11
aF5.7765110596325441e-16
aF1.9824214577171464e-17
aF2.2785689915881611e-13
aF3.0370280100556113e-14
aF4.1189645614587028e-13
aF1.8976442435189099e-15
aF4.6699400916375317e-11
aF1.8815700194252975e-14
aF4.0318277580704781e-13
aF9.4310259974229765e-10
aF4.6054217451449271e-10
aF8.8228017935957819e-07
aF4.5717307823415922e-08
aF2.5895765920084253e-10
aF3.4263831350366664e-11
aF1.6164025934629698e-07
aF7.9605972128785354e-09
aF7.4636555115293517e-05
aF9.0544080723412787e-10
aF1.3052040877684348e-08
aF0.00027611698887341113
aF0.0066313008794971085
aF0.07260623934236729
aF7.5476232873646797e-06
aF3.390248584722664e-10
aF6.2550342201200681e-06
aF1.7381390687600589e-09
aF2.4193883581013729e-06
aF0.0030389828800641457
aF3.6588370331999265e-10
aF7.8279562283150908e-08
aF2.505967718088727e-07
aF0.00035712955106302472
aF2.2324768221681867e-05
aF0.00081424917582038816
aF7.2799817290478005e-07
aF9.6253675666307879e-09
aF9.5724486246028853e-07
aF5.9606735596162301e-07
aF7.9268451603874333e-06
aF5.3816731351744281e-11
aF1.6838990622342012e-08
aF1.0373639879663142e-10
aF8.5359093474214225e-08
aF2.4675041234286189e-06
aF1.0286663436705305e-07
aF5.9716009775154976e-10
aF6.7557940269546706e-07
aF1.0564926964482617e-08
aF1.6699858858453358e-05
aF9.6900462735537819e-05
aF5.1559238302435621e-06
aF2.7994425781199482e-06
aF1.0479554125828657e-08
aF3.9573747011048141e-05
aF1.2278950878996771e-06
aF3.5307472303751009e-08
aF7.2553473124558798e-12
aF8.1679967028464776e-13
aF1.7108014334844614e-13
aF1.5281509032730022e-12
aF3.0633653016940292e-14
aF2.070841144548472e-05
aF0.00065744874698740784
aF1.2050704533078443e-07
aF8.5931045675929924e-09
aF8.7399489045621966e-12
aF2.9713107784405849e-12
aF1.5680653780175693e-09
aF6.4991180675919133e-10
aF3.83259137763036e-10
aF5.5429193660346298e-11
aF1.5534114891645322e-10
aF1.6613264226044062e-10
aF1.4318735553526847e-10
aF3.2390134264452302e-12
aF6.6098507628800261e-07
aF1.7960444565519188e-13
aF5.5407659545408541e-13
aF4.1626589606338347e-11
aF1.7288534362195207e-05
aF2.3978695155855533e-08
aF2.3151846231933264e-09
aF4.6143866568246898e-12
aF4.4197014581231906e-12
aF4.2332328224263129e-12
aF2.6864572005954387e-07
aF0.045567256277838961
aF1.2542476519600371e-05
aF4.7864915796854221e-14
aF3.0292696197092407e-14
aF6.8831354811043539e-13
aF1.0588293770053381e-14
aF5.1457982144962323e-15
aF9.009965324491005e-13
aF4.0066129894447737e-12
aF7.8481921873878084e-14
aF9.9580772786301734e-16
aF2.7285250868337816e-11
aF1.3020426964265082e-13
aF1.316085688401878e-08
aF1.3061204330849352e-11
aF0.00021983353229175728
aF1.1159940523330266e-13
aF1.0551563595283652e-16
aF9.2743309483013941e-38
aF4.3213546970297766e-37
aF1.4749494214391785e-35
aF6.3274636811784602e-37
aF1.4796609636081853e-36
aF1.1578404884532152e-36
aF6.3626513413320783e-36
aF1.4052231790644624e-37
aF1.1740903453991571e-36
aF2.576388855661789e-37
aF4.638028365990402e-37
aF1.2687106355388029e-36
aF7.067519431206193e-37
aF7.0410981412470963e-38
aF5.3369631199401748e-37
aF3.1419877298497705e-38
aF4.8540491381444202e-37
aF1.2524073251160652e-36
aF6.2059028387337001e-38
aF2.8559887203589992e-34
aF9.7577031027554009e-35
aF4.3926692712864267e-37
aF4.9164064369322787e-36
aF2.2817151105081459e-38
aF1.9289908895541971e-18
aF7.5001718723918962e-14
aF6.2338208260430823e-09
aF6.9951052425697427e-11
aF7.2005727711620625e-14
aF8.290939699476959e-11
aF4.3811615013533751e-11
aF1.4722691113884145e-05
aF3.8153869943130642e-06
aF1.9869268221899404e-14
aF3.0865946554673169e-10
aF6.250345586583974e-12
aF4.4420526476348314e-05
aF3.7599175578209013e-11
aF6.2770875974038469e-09
aF1.4127372106597663e-13
aF4.3553816531158275e-14
aF1.23330152526703e-14
aF2.3298996017341297e-08
aF9.4672979995344548e-10
aF3.6027414274081559e-12
aF2.305089552289879e-13
aF1.3566950583447911e-12
aF1.00595625224326e-08
aF3.4158451638969113e-08
aF3.6903134948217182e-06
aF1.4425337058679739e-14
aF5.8621511656704861e-10
aF1.6976518781926794e-11
aF7.1828338530768075e-13
aF0.00016267420231174835
aF3.0607384451200609e-13
aF0.00046647474681773621
aF4.2965675562184384e-12
aF1.4958115498115063e-06
aF2.5691039103956097e-10
aF5.1984040718743312e-11
aF5.0449544124153544e-14
aF2.9633309379760598e-09
aF1.2757054047880901e-10
aF0.018794242441424917
aF8.4606163072489654e-08
aF1.0325760836875992e-09
aF3.2312397636769178e-12
aF1.1837348798553247e-08
aF3.8348746047106405e-10
aF7.1547249604931557e-12
aF1.1675002953313244e-09
aF0.0039293421706308694
aF1.9550838224415485e-12
aF2.9528540565240711e-14
aF1.2384941487271996e-10
aF4.4903287733924654e-12
aF4.6062311835078355e-14
aF1.9423542587531625e-09
aF5.6830438373494954e-14
aF1.2911763682150064e-13
aF1.0180596466320373e-15
aF6.6580505265279522e-13
aF1.8693902629268117e-14
aF7.6467489419771194e-07
aF9.4582109084791584e-15
aF2.9926158070492208e-11
aF2.5367492845121724e-12
aF6.2387309096973312e-11
aF1.4841510556590376e-11
aF3.2411821103609485e-10
aF2.2084456662429613e-13
aF1.3914245458401594e-15
aF2.8990340416016095e-11
aF2.2217250371212475e-05
aF7.6685121432440056e-12
aF5.6325990276761436e-11
aF6.1349929836585051e-14
aF1.2262380301190053e-16
aF5.4797526288838632e-14
aF3.4324691951804242e-11
aF7.9933565579434286e-12
aF7.3150243011929732e-14
aF3.7084342234555155e-14
aF5.8607461028518518e-11
aF2.5281509109590094e-14
aF2.933381718548436e-14
aF4.8746134542888854e-12
aF3.4615860676122272e-11
aF2.5906762063882255e-18
aF3.3107403560943059e-14
aF7.4637471460610025e-15
aF2.381764746648057e-12
aF1.6966820793993829e-13
aF2.0963995426678646e-11
aF6.4736818488480544e-15
aF1.2841892351766903e-12
aF2.9346416933586237e-16
aF6.2589592325590786e-15
aF4.7185751193107946e-17
aF2.2531709538991558e-08
aF1.5233171817284623e-14
aF1.6268794749149587e-12
aF2.9688824633518589e-11
aF3.5402772216667058e-15
aF6.3240961121403211e-16
aF3.4735443739925581e-05
aF1.3959299103129534e-14
aF3.9593830245901438e-09
aF4.1345729766830946e-15
aF8.9255851932632531e-11
aF6.2251613628021525e-14
aF2.0449620255683042e-08
aF3.9599862852568402e-06
aF1.3150242550769315e-10
aF4.6681150372155012e-12
aF6.5499905050796314e-07
aF8.2998740663128383e-12
aF1.6600740840051888e-08
aF1.5252567793150552e-11
aF8.6147150446404642e-11
aF1.2025275950545555e-08
aF6.2819518637922699e-11
aF3.1101370938904083e-05
aF0.00076249017423895529
aF1.2840288747463027e-08
aF2.8973540751880247e-06
aF3.7488755967570699e-05
aF2.5002481960715696e-08
aF2.4908480203664689e-07
aF0.00012094918194599592
aF2.1782368156423288e-06
aF1.0930701469985727e-06
aF4.887388835243096e-11
aF1.0149822536107897e-08
aF4.1816502173183076e-05
aF7.3114734630915346e-07
aF5.155710016336379e-05
aF3.7056470064511606e-05
aF3.1707380641549738e-08
aF1.6384101534809228e-05
aF8.3889122862328014e-05
aF0.0004123370655188876
aF0.088056203189113974
aF2.0032988585114155e-08
aF8.5935627402512437e-11
aF5.7032492515783308e-09
aF5.5332595591565202e-06
aF0.0019450345688039265
aF0.024199687101351564
aF6.0133175980491823e-09
aF4.3301287034352688e-07
aF2.0353098549011662e-06
aF4.1967928236734776e-08
aF3.1581764971079455e-08
aF1.301531070291462e-08
aF5.6712306189776095e-07
aF4.1761216005754212e-07
aF1.7050819114673042e-09
aF2.1091901960440174e-06
aF2.1282501786272275e-09
aF6.3899507955528219e-09
aF1.1773662799056463e-08
aF7.6026956408863574e-09
aF8.3708908283416267e-08
aF9.8847696533101343e-09
aF8.1159941061350756e-09
aF6.8133176041979878e-09
aF0.083494330755135723
aF2.3863541094415302e-08
aF3.5985338751632242e-09
aF7.0450460623190177e-11
aF6.1712115322931856e-12
aF0.0020309037611709927
aF0.16684051901743724
aF0.016795922392466491
aF0.00034604100911227181
aF1.2391355904487499e-06
aF6.2269176913254448e-06
aF0.026724752983078356
aF2.3808484013315565e-09
aF8.556908927591224e-09
aF2.4767592111252742e-06
aF1.1984116773412742e-06
aF4.2829980093232605e-05
aF1.0363560081181638e-08
aF0.010479248677389821
aF3.4321102932647949e-10
aF3.1583292213273631e-08
aF1.6298805058264979e-06
aF0.025645985459228162
aF0.0058172731537948739
aF3.0841739765895615e-07
aF5.3469665563119724e-10
aF0.0001603253038171188
aF0.00013779008162108063
aF4.5656065411429804e-05
aF2.4286739906419106e-07
aF1.7394906781018973e-09
aF8.8339506616132034e-08
aF1.4789966132537222e-08
aF1.3282654449003636e-10
aF6.5903020627946828e-08
aF2.0390439620659054e-09
aF1.2023061449364012e-06
aF3.3948684923600206e-08
aF1.8246573390596464e-06
aF0.05832049222023445
aF0.31244168084058738
aF7.9012638536351283e-07
aF6.1461342154649563e-06
aF1.1439731293301745e-06
aF1.9009354504473407e-08
aF2.5237448172288362e-07
aF1.3986407652076007e-09
aF2.2840746996981345e-08
aF7.522622332646159e-06
aF5.5847352573109351e-08
aF0.00030716429543864172
aF3.2879768111902394e-09
aF1.5448742052991362e-12
aF1.7872704501464266e-06
aF1.5580466692238306e-11
aF5.8089267752037497e-16
aF4.9092513072526027e-19
aF5.0916498425020247e-16
aF2.7358482131548144e-16
aF1.9665381388978046e-13
aF3.3960521050605009e-17
aF4.6170975117193364e-18
aF7.53231268436815e-19
aF2.147669063126067e-11
aF5.6679546844711208e-11
aF8.1767783454629412e-17
aF1.5121301326561857e-14
aF2.857683959194525e-17
aF5.7393990743142758e-17
aF2.1383834305855285e-20
aF1.109778176602765e-13
aF6.825039188038223e-18
aF1.807170415936429e-18
aF4.3654156343315085e-17
aF1.2147760774517786e-17
aF2.4512619026936479e-16
aF8.2580276301926504e-10
aF1.0715207596388697e-16
aF5.8228857688584398e-16
aF4.1979688001629863e-14
aF1.1187278158605862e-15
aF2.4903898477082189e-15
aF9.6181131662084921e-12
aF4.8349662469282981e-12
aF1.8598755440571482e-13
aF9.9421939598108302e-18
aF6.7063724695514095e-10
aF7.1819633250261326e-14
aF8.7074186458264288e-12
aF1.6179221994461665e-15
aF3.0472605327565333e-15
aF5.0091558553840685e-18
aF2.3832156267325162e-18
aF5.0182658550722774e-16
aF4.9137032182486018e-20
aF4.0907945791872841e-20
aF9.8883586724664275e-19
aF2.8971937147576374e-12
aF2.2824176419174629e-21
aF1.4647779884260232e-15
aF4.5653469099699719e-14
aF2.0128670308578749e-11
aF4.8740865557318975e-12
aF6.8207858185274661e-11
aF1.683906698445172e-12
aF6.1170249792441239e-11
aF3.3860639411106454e-09
aF7.1134436039848086e-12
aF5.7433317229642565e-13
aF1.3910885525574426e-05
aF3.4062006294407436e-08
aF5.7790539178858341e-07
aF5.8907487757562716e-08
aF1.6502768253296045e-10
aF5.3991371496647333e-11
aF1.3699438843791939e-12
aF1.1917605375856748e-09
aF9.9367722500215357e-09
aF4.9358558662750005e-11
aF1.2496582891665639e-09
aF3.0910389302523439e-06
aF4.3687755671586766e-11
aF1.8297888728320494e-09
aF1.1882478805390895e-05
aF3.5386201638860344e-06
aF4.952243175018418e-08
aF4.9269902253378588e-07
aF5.5904929603829469e-11
aF6.88502162521415e-11
aF3.991959100591736e-13
aF1.0228933681765774e-09
aF5.4202207281552149e-11
aF1.5732580014777388e-11
aF1.8613187879306365e-12
aF3.3779695574815576e-12
aF2.3512504476085909e-12
aF2.4328051807771338e-05
aF0.16418464484178
aF2.9442022294941121e-05
aF3.3748463471944856e-07
aF8.5835593038794469e-10
aF8.4610744799072158e-11
aF5.658065791263886e-10
aF2.3101447239525734e-08
aF3.4287656328595679e-11
aF1.4288190709643499e-09
aF0.0012279332689545315
aF0.0024962086404679965
aF3.3483105140708259e-08
aF7.6668321768304208e-09
aF5.2504677582735003e-09
aF1.2345615000772182e-07
aF3.2810736764726026e-11
aF1.7334657076459067e-11
aF1.2487572162720049e-05
aF6.1156504612693736e-08
aF5.1773128571728788e-08
aF6.6762170724275736e-05
aF0.22090183820657744
aF1.8950402955778544e-06
aF0.00095864228906795187
aF0.003366331971962002
aF3.0321866523001006e-06
aF2.9069298837454547e-10
aF4.0396472381046156e-07
aF2.9975793441802657e-05
aF1.2120804949790731e-05
aF1.9452636551330517e-07
aF4.4083693210424684e-07
aF8.6449544400849783e-09
aF0.065352907989607703
aF2.6575312334379065e-05
aF9.4744760378470415e-07
aF0.00027424153545897349
aF2.4768203008130406e-07
aF1.5663319581271893e-05
aF9.1720820834018822e-09
aF1.3649268937713538e-08
aF8.048260914823748e-06
aF9.7346417456234701e-07
aF3.5586575814735114e-10
aF1.0506280864226588e-10
aF1.0102707114417832e-07
aF7.8356688013956353e-07
aF0.00075735482236106728
aF0.00031690199166865352
aF0.00042628918658370454
aF0.0029103814511042734
aF1.5095949106138676e-09
aF5.776167430138857e-08
aF1.9920354473294307e-05
aF0.0024639991025930045
aF8.4480165591470847e-10
aF9.8150510471463887e-05
aF9.2970104948847829e-05
aF6.4949639688237787e-07
aF1.9078385851649777e-08
aF1.2297201423217074e-05
aF0.00028742774456341546
aF0.007632415773984858
aF2.7269672997957311e-08
aF1.2751708700201313e-05
aF0.1028918338632568
aF3.7767554030115973e-06
aF8.45855453028684e-08
aF6.0450842356878657e-06
aF8.7479669260815752e-07
aF0.00014739567140129695
aF2.4635943834115505e-06
aF3.2799129724050352e-07
aF3.1060669934429519e-06
aF1.2534305773861574e-05
aF1.0661219584824877e-05
aF1.8146157216329953e-07
aF2.489198598796768e-08
aF2.9293956164216589e-05
aF1.4183880067781862e-08
aF9.393303115227041e-10
aF0.00012426329750733935
aF1.376190304953339e-07
aF0.00020623420417379302
aF1.8031919500206227e-07
aF9.1132832589264352e-06
aF3.2323317418457478e-06
aF7.8670536284857764e-08
aF1.1281050829327745e-07
aF5.5183154942865919e-08
aF3.0401206754988004e-07
aF5.04263300428022e-07
aF1.691512364572126e-10
aF6.0460387620592195e-07
aF1.6406017460295533e-10
aF0.014487648540201771
aF4.1234775621424679e-08
aF0.0035155282619102222
aF0.00088403650788287068
aF1.3912107319329759e-09
aF4.4736741972650692e-08
aF1.1980298667927323e-06
aF2.1333358951338052e-06
aF2.1599404541562025e-09
aF5.2356153279352222e-09
aF9.0067581158832528e-05
aF4.0987362385969551e-10
aF5.0568516291079192e-09
aF5.1070978972960287e-11
aF1.0955213707202114e-11
aF5.0408766757569271e-13
aF1.4012905304144811e-05
aF1.0379290675781562e-11
aF4.0013287314529538e-11
aF7.587285767147209e-13
aF4.2630751349003455e-09
aF2.1515024410334271e-10
aF8.9417739605214272e-12
aF3.6309877717892827e-05
aF2.1486694067632467e-11
aF2.0827918147178325e-12
aF5.9452942307209636e-11
aF1.5445916654932152e-10
aF3.5150395444080882e-08
aF4.1488603274095314e-12
aF2.7641327385907962e-12
aF4.4220839559460929e-12
aF1.9963269978950414e-09
aF2.0209385058540502e-13
aF5.9399488830413775e-11
aF3.0909320232987524e-12
aF6.9911496852868492e-18
aF5.7180100473849596e-12
aF9.0864037963090881e-19
aF8.1742583958425644e-17
aF9.3596274248456471e-10
aF6.2090031403878609e-12
aF1.4937955901152052e-19
aF2.4930014318602451e-17
aF1.3150013464440191e-12
aF5.9715017067728765e-21
aF5.7717002467209172e-18
aF1.2138597321352783e-15
aF2.8472528950083615e-17
aF2.78048950249033e-17
aF2.2261311308514211e-15
aF4.1497537640931192e-17
aF5.2835783690430508e-21
aF8.2749036564382015e-17
aF3.8631667663575932e-21
aF2.1704249718191622e-17
aF5.5641480325335579e-21
aF3.2220610380899714e-18
aF1.0374098052321392e-18
aF6.7516628368194468e-20
aF2.9837807109559624e-12
aF9.3294643915108401e-10
aF5.2953992236259073e-09
aF6.435531338837751e-09
aF1.7174449370290897e-10
aF1.1446832969504626e-10
aF1.3042571976080509e-09
aF1.2158680556206085e-10
aF7.5921271249027199e-10
aF1.6165782263152992e-10
aF8.9119163756254541e-10
aF6.9262495282457012e-09
aF0.24881677103157046
aF0.0001563285109949825
aF5.045030774525063e-08
aF2.1853232194232657e-11
aF1.2068878715189036e-09
aF1.4111870598326865e-11
aF3.7838112619486513e-08
aF1.1391928612624304e-07
aF-9.7558704121223979e-10
aF4.7187660245850654e-08
aF0.00013073804078951232
aF0.0010239548015015237
aF5.7605055614376692e-05
aF0.0063796571831641335
aF7.8022221973433679e-08
aF1.4784697146967344e-08
aF4.3445229611152972e-08
aF4.0065060824911809e-08
aF2.5897980421265793e-08
aF0.00031948990356667033
aF3.1511359105928338e-10
aF6.0438089884557352e-10
aF1.016570585492724e-10
aF2.011691054368366e-07
aF0.00030520942543010735
aF0.010328433510715785
aF1.3415448157786498e-05
aF2.2029246857110458e-06
aF1.607368955884469e-06
aF0.052738345638442624
aF7.7719064397891444e-09
aF2.184949045085695e-08
aF4.5734947470758557e-10
aF0.0072612042862705119
aF0.00043429957189211295
aF4.7431713548478618e-08
aF2.4429384327354353e-10
aF5.8557749295098369e-09
aF0.00034386774346997149
aF2.2736207268790585e-10
aF2.4114848797465563e-09
aF3.9848803330217697e-11
aF1.4730327324854984e-12
aF3.0626322254408287e-08
aF-5.4039937798421855e-08
aF4.0366691158259889e-12
aF1.7011950800831477e-10
aF8.0685732360061753e-13
aF-2.0595090074677496e-05
aF0.0016817761955843084
aF-8.820816378743364e-07
aF4.5239281016641505e-07
aF2.0053453630516003e-05
aF2.2282616337122844e-06
aF-1.6055973549392349e-07
aF3.1354893143135883e-08
aF-0.00014987591272462494
aF-2.3920125417709208e-08
aF-5.5790462801376613e-07
aF-0.00027619182374092536
aF-0.0066562178358949512
aF-0.070921843926419981
aF-7.5473407475587582e-06
aF5.0311710516129932e-07
aF1.3845748645993182e-05
aF2.8363789305858885e-06
aF-2.4091787440333631e-06
aF-0.0030389370627983206
aF-7.4669314460358401e-10
aF-8.0002291478171818e-08
aF-2.20916347007422e-07
aF-0.00035712955106302472
aF-2.2218013992309559e-05
aF-0.00081424917582038816
aF-7.2807224415119715e-07
aF1.6421213520127501e-07
aF-7.2301936335179411e-07
aF-5.8773701341353653e-07
aF-4.6819289428617461e-06
aF-4.568897748071411e-11
aF-9.0957963358032162e-09
aF-3.683983075926894e-11
aF-0.00050173418735448066
aF6.7121530812563351e-08
aF-1.0285365280840262e-07
aF-2.9911343821208786e-10
aF-6.5987858931832829e-07
aF1.5120537705464771e-07
aF-4.0944065069764899e-06
aF-9.3019740320158257e-05
aF-1.9658203350665459e-06
aF-2.8017181689892579e-06
aF-3.5208812458007795e-08
aF-3.9573747011048141e-05
aF-1.2211370411904861e-06
aF5.3231721229268432e-05
aF1.3419877160149582e-08
aF1.1427436993638696e-09
aF0.16677332036089385
aF4.9066015420457233e-07
aF1.3504486377706461e-09
aF1.3087549258698741e-05
aF9.8977512119605562e-07
aF6.8892749947249067e-05
aF-8.5718759010940662e-09
aF5.8208698091621382e-09
aF4.8900920539267725e-08
aF2.0909014707688619e-08
aF5.8763621542872146e-07
aF1.1004161819525182e-08
aF0.01764002915318285
aF1.1066167852608383e-09
aF3.7614829810699222e-08
aF-2.1372914524166988e-11
aF5.7485014377915131e-08
aF0.0058199611000566091
aF1.8183727374306472e-08
aF-3.6192967327929311e-11
aF0.00016032377657492459
aF0.00041882020863312855
aF1.6059409844329225e-11
aF3.9889809783131098e-08
aF1.8993394823544357e-06
aF8.764690228107709e-08
aF1.399709834743518e-08
aF-2.6854797655911715e-07
aF-0.044712611545982849
aF-1.254056746685766e-05
aF9.2852507299896915e-08
aF3.821671595942063e-08
aF1.8253598704689632e-06
aF7.4117292769276574e-06
aF2.379893874960202e-09
aF3.8580734136400447e-05
aF1.6755450474321051e-06
aF4.3934176199615687e-08
aF8.4422894009189563e-09
aF8.1046925138982358e-07
aF1.3288610693560888e-09
aF1.7991218495731662e-07
aF2.6103012685832775e-10
aF-0.00021972662533816556
aF4.3666679729307258e-09
aF0.00027019052553894424
aF1.7749685142724077e-12
aF6.7767477898586471e-13
aF1.6180367426107291e-06
aF2.1339467920114721e-10
aF1.1931426917713964e-09
aF6.3614753648425701e-10
aF5.7089153201186917e-10
aF2.0575541374592151e-12
aF2.7175365792467468e-09
aF1.4274369167786284e-06
aF4.6275133034835588e-08
aF-2.051933886184679e-12
aF-1.5447672983455444e-12
aF-1.7848955885344964e-06
aF6.1469665624607776e-12
aF9.560154324939837e-12
aF4.3013325518642412e-13
aF1.0184567296025209e-14
aF3.6342789787177141e-13
aF2.2489175843883995e-10
aF1.8905502035270019e-14
aF4.9915009356194926e-14
aF1.8000687397335501e-13
aF-2.1134053844999197e-11
aF-5.6671528823191825e-11
aF5.7165668035114717e-11
aF4.3407659453176453e-05
aF2.906173898859342e-15
aF5.7601008422562153e-15
aF7.2930396498079331e-13
aF2.7017448949590551e-06
aF7.8876713981070374e-05
aF7.2967890293946141e-15
aF1.8837692481848983e-14
aF1.7079378543703971e-13
aF5.3299072610031217e-06
aF4.1418273771053904e-07
aF0.00011020426948893066
aF4.1734947440014525e-16
aF6.7884617374879114e-14
aF1.9507846356649671e-13
aF-9.3694017748883206e-16
aF6.5535795242359252e-13
aF4.4676415905981075e-11
aF1.3745561558055797e-11
aF2.2604558991653345e-10
aF7.503272174046056e-17
aF2.6463212757327175e-05
aF7.0475889205723068e-15
aF4.4588675841926161e-08
aF-1.1690428099474338e-12
aF-4.690748766533063e-09
aF0.00072150662995847114
aF5.0141117563041419e-10
aF-0.00016267420231174835
aF-8.360429219311578e-12
aF1.5589095610635351e-11
aF1.4521171506363747e-13
aF-8.3814287994813814e-08
aF-3.4524226144472223e-11
aF-2.2327288171302243e-12
aF5.136734032073849e-08
aF-2.9564888929461897e-09
aF-2.4815165705601056e-11
aF-0.018080867612529295
aF-3.8677561291510667e-06
aF9.3342752044224683e-07
aF-1.8136688314726114e-09
aF-7.1266771575972691e-15
aF9.983276774833935e-12
aF-6.6402886998097827e-14
aF-1.3902485693506505e-09
aF-0.0039293421706308694
aF2.3315719319367432e-06
aF5.4416250275064719e-11
aF1.0351036695189463e-08
aF5.0393570697737302e-11
aF-2.070841144548472e-05
aF-0.00064929861901823313
aF-1.2160513246839086e-07
aF4.42060253101775e-08
aF3.8039861313336036e-08
aF-3.574548536503824e-13
aF1.9405673853859866e-05
aF-1.6888473269433038e-07
aF2.5084571228652199e-06
aF3.9893627888616508e-09
aF2.027933275103337e-07
aF4.4081020536584893e-08
aF4.1048681160065368e-06
aF1.1577717625544776e-10
aF-6.6096827662386678e-07
aF6.7991066155812602e-08
aF9.1868963326853072e-08
aF-2.2217326733322185e-05
aF6.7125196193829349e-05
aF3.5507311944857826e-08
aF1.6060020741206892e-12
aF5.2711771624264116e-13
aF1.2124393968947022e-07
aF2.7457218339401075e-07
aF4.1049139332723617e-06
aF9.5947463606377315e-09
aF1.7452483811739086e-13
aF3.1733572845179707e-07
aF4.0477874389995277e-08
aF-5.8399985176440859e-08
aF1.1727769171121733e-13
aF3.5196441796235035e-12
aF1.3030964935404837e-14
aF5.3999618604495831e-12
aF2.175136513988169e-13
aF1.6602420806465471e-09
aF8.5419419540883836e-10
aF8.6984079168808411e-13
aF2.6023672453845777e-12
aF-7.9449429803883185e-13
aF2.1595280987637775e-14
aF3.8721927677251227e-13
aF-1.8299339608404949e-13
aF2.9545951126254221e-16
aF5.6418006618960029e-15
aF-1.0594555463049468e-09
aF2.0131495706637958e-10
aF-5.8849223467855225e-12
aF-2.2111107038717835e-09
aF-9.4354549997860634e-10
aF9.0566989356325294e-11
aF-5.1705853553075709e-13
aF1.1097094507040274e-12
aF-5.3718300592330186e-09
aF1.8063533413625492e-14
aF-5.1780688420589913e-11
aF1.6863273773229275e-10
aF4.0274063919183635e-07
aF1.704005205720416e-09
aF1.0694666188877144e-13
aF2.3099996359441276e-13
aF-4.8797297156393458e-10
aF-2.0827536336629785e-10
aF2.7357718510451062e-13
aF4.670680804101702e-13
aF1.1717842096859642e-11
aF2.9556947270052223e-06
aF-0.0001598129140609756
aF6.0507655766501692e-07
aF0.00028451758456242936
aF-3.6628002266937915e-05
aF-1.8561185282594965e-09
aF1.2746668800960561e-05
aF0.10281012640586884
aF-1.6383108827383024e-05
aF-4.9077927909571736e-06
aF6.6399985237928914e-09
aF6.791409314922655e-07
aF0.0055151082856788394
aF-7.3842694622765268e-06
aF-5.1214845187650865e-05
aF-3.3549158365606002e-05
aF1.6063075225595226e-07
aF1.0663128637567586e-05
aF-8.3566874759358687e-08
aF-0.0003644343504777278
aF-0.086859608929983761
aF1.2856706601050327e-08
aF4.9920507428093934e-07
aF4.3319613940682697e-07
aF-5.31293196401495e-06
aF-0.0017387805104816093
aF-0.02420228341308165
aF7.1968386639973226e-08
aF-1.1343973207727445e-05
aF-1.9593219195303634e-06
aF-3.2888244306080022e-08
aF5.3511970171898157e-08
aF8.2133557960132513e-08
aF-0.00046657936290803669
aF-3.4617158831987312e-07
aF0.0013804894917299202
aF0.00081497461586261762
aF5.5841778139100638e-06
aF-6.3295636391954406e-09
aF0.002989011515470986
aF0.00025444389489598054
aF-8.0659769242760905e-08
aF-4.4230079374735636e-08
aF9.6178077177696603e-07
aF2.0987285870139701e-06
aF-0.083485167301970725
aF4.1274102107924492e-09
aF6.477843583827161e-05
aF1.3671643035858091e-07
aF2.0758734075782537e-09
aF-5.1966630157729802e-06
aF-0.16533923994057059
aF0.0074057577599484633
aF1.9167500433679448e-07
aF-1.1525638666723667e-06
aF-6.1175136967462581e-06
aF0.0011143369945523548
aF1.0197014319907673e-07
aF-6.8761101670111829e-09
aF-2.4759879538172194e-06
aF-1.1366729116420541e-06
aF-4.2829903731122895e-05
aF-1.019678523357855e-08
aF-0.010478332332073322
aF4.882990377723894e-10
aF-3.1575656002302792e-08
aF-1.6236569938852652e-06
aF-0.025645985459228162
aF-0.0058172273365290498
aF-2.9974342561718192e-07
aF-4.8740331022551017e-10
aF-0.00016032454019602172
aF-0.00013779008162108063
aF-4.5655607238771557e-05
aF-1.7514337120602869e-07
aF0.00012211141325575738
aF-8.8318125225413692e-08
aF-9.1148868632303109e-09
aF6.5036081596427652e-08
aF6.8906036954338326e-06
aF2.0840517895280206e-05
aF4.8695888274700743e-05
aF-3.3802146035069838e-08
aF-1.8234889987811083e-06
aF-0.056337979127985653
aF-0.068163873610082637
aF9.0843420193469616e-05
aF-6.1461265792539857e-06
aF-1.1437669516339621e-06
aF-1.8811423916109303e-08
aF-2.1946317605967166e-07
aF-1.3938070436630606e-09
aF-2.1901263961239227e-08
aF-7.5144744955402733e-06
aF-5.5824291215977421e-08
aF-0.00017651101659090567
aF0.0076637013303323788
aF0.012778740887038079
aF-2.9297239734934049e-12
aF2.9375892707933673e-08
aF4.5807491474981512e-10
aF2.2070024223694733e-05
aF0.00013657057872903792
aF-3.3779542850596163e-05
aF4.7229659406190259e-05
aF2.8921843603607681e-07
aF7.0098354935324866e-08
aF2.5814058462696289e-09
aF6.4270169636052663e-11
aF3.1592837476987178e-05
aF0.0040477645303666149
aF1.8357298449673605e-09
aF1.5457600057717533e-06
aF-5.4964759309099967e-07
aF0.013292505161156015
aF3.2444504086564669e-07
aF4.8361193147848942e-09
aF1.7376427150469547e-12
aF-1.2023366897802847e-08
aF2.3978771517965239e-08
aF-3.1060669934429516e-05
aF-0.00058807987928612701
aF-9.4888321144722172e-09
aF0.00034399297732989323
aF-6.5629262464642304e-07
aF2.8587224838865586e-13
aF-2.4781566377329375e-07
aF-3.3880493559630632e-05
aF4.5560383687965214e-08
aF4.8509946537560849e-08
aF3.8636478476487558e-09
aF4.3265473204899462e-07
aF-3.2698637187674138e-10
aF-2.826413675268946e-07
aF-4.2680921255081864e-16
aF-1.474735607531995e-14
aF3.8563781748045183e-08
aF-1.6384025172699521e-05
aF-8.3771525213377138e-05
aF-5.6824482128937694e-10
aF-3.0537360396598034e-07
aF-1.8749036072477562e-08
aF-1.331579560461707e-12
aF1.9685159175392513e-10
aF1.097896232332142e-16
aF6.363010243247708e-15
aF-2.012385949566712e-11
aF3.847161268162718e-09
aF5.8872284824987149e-07
aF2.4083005797717167e-13
aF8.6811500800867484e-09
aF1.6184872790580083e-07
aF-7.1086404272841516e-12
aF-5.3193311088085122e-13
aF-1.3866290053504736e-05
aF-3.2132717592625377e-08
aF-5.7790157368309787e-07
aF4.4177160432707734e-07
aF-1.645359105464385e-10
aF7.8888931918623719e-11
aF-1.3392234076435152e-12
aF4.191661289901075e-07
aF-9.936695887911828e-09
aF-4.1678134030391495e-11
aF-3.5778855606980803e-10
aF-3.0729105654075761e-06
aF-4.3624222396309399e-11
aF9.0699859427217865e-08
aF-1.1882478805390895e-05
aF-3.5384903482995301e-06
aF-4.8641289366259258e-08
aF-4.0082853196473865e-07
aF-5.5900576963576083e-11
aF-6.8831965707921201e-11
aF-7.8211600005510454e-12
aF2.4302317776799619e-08
aF3.668840469571724e-07
aF-1.5724791079587132e-11
aF2.4350273181696477e-10
aF1.797533517691232e-11
aF7.5567256508419182e-07
aF-2.427688919426673e-05
aF-0.16297125091851392
aF-2.9441945932831415e-05
aF-3.3748463471944856e-07
aF-1.1942728509950804e-10
aF-6.8075064476491802e-11
aF-5.5750983590657378e-10
aF-2.1592990124346521e-08
aF4.4727883967924521e-08
aF-1.4283227172512455e-09
aF-0.0012279332689545315
aF-0.0024962086404679965
aF2.3417357287389278e-06
aF-3.5096941967285025e-09
aF-4.9988775154173222e-12
aF-2.6601504538009039e-11
aF1.3980527769628462e-10
aF9.8119965627580541e-06
aF-1.5818640112418723e-09
aF-3.5828796426730077e-09
aF2.9630025809043138e-05
aF-6.1826200314836171e-05
aF0.0019421633534788918
aF-1.455163998813739e-06
aF-0.00071122294464404459
aF-0.00093782597796144922
aF-1.5918903562465817e-08
aF-1.0315986486833319e-10
aF1.6729410994910496e-07
aF-8.2028178248734967e-06
aF3.2298423370692548e-06
aF-8.1654003911163938e-09
aF2.9972280784756073e-05
aF3.9072582485032077e-08
aF-0.063401550638119919
aF-7.2882746541621305e-06
aF1.9560841660787281e-06
aF-0.00027420564526741054
aF-2.3731205558290694e-07
aF-3.3200794421116402e-06
aF-1.2365087338747818e-09
aF-1.1454163732036629e-05
aF1.1147798947886634e-05
aF1.1122828538011996e-08
aF2.2981100554625336e-07
aF1.2926577931433491e-07
aF1.5615364176375034e-07
aF5.3817800421280191e-09
aF-0.00075672941668255569
aF-8.9115345650769115e-06
aF-0.00040592264830338425
aF-1.1372227188319542e-05
aF1.617005854129666e-10
aF3.9004085672623669e-08
aF0.00018707189636357372
aF4.6112558103266464e-05
aF4.8648772853010678e-08
aF-8.6809973558673323e-05
aF-9.0615861106538653e-05
aF9.6454508014840916e-07
aF0.0042739796441667015
aF4.7185751193107944e-05
aF-0.00028726127516425122
aF-0.0076283914908032262
aF0.0034538582221097396
aF-1.0950708342729322e-05
aF-0.089626208164718141
aF2.8132030302893974e-05
aF1.002351960665025e-06
aF-5.982704028267095e-06
aF3.5052117408886207e-06
aF0.048329808320758803
aF0.058074148054315239
aF3.4035126831790088e-05
aF-1.1269596512871491e-06
aF-1.8203123350172401e-08
aF-1.0659692342630709e-05
aF-1.7878813470240939e-07
aF-2.1923638059383778e-08
aF-2.9044328427579913e-05
aF-1.3566263324460536e-08
aF-2.8717269511698949e-12
aF-0.0001105646986467542
aF2.8393952339193694e-06
aF0.00039798404337810172
aF5.3653392799078067e-06
aF0.0013840097849874761
aF-1.4800427741567269e-06
aF1.2673972072518188e-05
aF3.7686381107495972e-07
aF-5.2296361747450559e-08
aF-4.2794471712218218e-08
aF-5.0206330804732375e-07
aF0.0078281853146442149
aF0.00065504639501598244
aF1.342697883635246e-06
aF-0.013685464577715307
aF-4.1036997757279987e-08
aF-0.0029886144325005025
aF4.7515788231267537e-05
aF-1.067099393486755e-09
aF3.1480279727277031e-07
aF9.4559200451879068e-06
aF-2.0523004243112788e-06
aF-1.8186781858694806e-09
aF-5.9381772820961424e-09
aF-8.9729297012824445e-05
aF6.0398152501179881e-07
aF0.038524378899435663
aF0.00027467909034760245
aF4.8223817712483575e-06
aF5.0842656264932249e-08
aF2.1882020709592715e-07
aF1.0582490249715543e-08
aF4.0348211527710462e-05
aF0.0020554312708093224
aF7.4776297776059838e-10
aF4.5956855761571087e-09
aF2.3021190662222232e-06
aF0.014791111564182849
aF0.048449009574013574
aF0.129904930172594
aF1.5011416250691505e-06
aF9.2947196315935315e-07
aF4.8991409639272143e-09
aF8.08758740132356e-08
aF5.5044939524293759e-06
aF6.6913978598375982e-08
aF7.0449162467325143e-09
aF3.1515711746181717e-06
aF1.3474476068591069e-07
aF0.0032020923464012316
aF0.0080169524498433144
aF0.00011893016776530652
aF3.4861212134615272e-06
aF1.0444580279582222e-08
aF2.2742239875457544e-06
aF9.7796953903514121e-07
aF6.29235238313455e-09
aF1.1551219973475972e-08
aF4.8691077461789112e-07
aF0.045411553936143594
aF0.0067318774141940079
aF3.6299797919411323e-08
aF9.3067084828177447e-08
aF7.8958421438458335e-10
aF3.1778779214127066e-09
aF5.6109350971518779e-09
aF0.00037073040642318319
aF9.361841926027191e-05
aF3.902210713051485e-09
aF2.0906723844397369e-08
aF4.9818945822181793e-09
aF6.1176740571766446e-08
aF0.00015480203242191213
aF6.0666030782036852e-08
aF9.7918369657950442e-10
aF-7.9169944482350527e-10
aF-5.073651293243761e-09
aF-1.668557914393789e-08
aF1.0654576081280248e-09
aF8.6564087565412356e-10
aF-5.519636558784546e-06
aF2.0243900732128687e-09
aF8.5433164720631347e-05
aF4.2269329483753729e-10
aF1.0678324697399552e-08
aF1.0281928985903385e-05
aF-0.00047236073823405766
aF0.067514413867012929
aF-5.3826047529128704e-08
aF-1.7729601907870775e-07
aF6.24629839476943e-06
aF1.751044265300774e-08
aF2.4175785761012845e-06
aF2.5842006994849554e-06
aF-1.8689320902685615e-10
aF-4.7009125633352473e-08
aF1.7399106697052933e-07
aF-0.0010219082969613394
aF-5.701744918017076e-05
aF-0.0056293536380135371
aF-7.7977931949802832e-08
aF-1.3562597943194535e-07
aF-1.8182734666880265e-07
aF5.2630064166876154e-09
aF1.6939024986059981e-07
aF-1.4769730173464502e-09
aF-2.905249917331871e-07
aF-6.0395479827340083e-10
aF7.9870185028376329e-10
aF2.2458172827342395e-06
aF5.0970715522913195e-08
aF-2.4825169141972856e-09
aF-1.3407124687828285e-05
aF-6.4094002248955448e-09
aF-2.4465274518917291e-07
aF-0.05142163378074114
aF3.0237868202321795e-05
aF2.7374060001928656e-06
aF1.088832049909758e-06
aF-0.0072215341702770112
aF-0.00043380169093681437
aF0.038179756698321778
aF8.4275515137452397e-12
aF3.0917949151384567e-11
aF2.317490758906519e-05
aF5.4469245579202335e-05
aF-3.6839067138171861e-10
aF2.562956760564086e-11
aF1.9754343246788302e-06
aF7.9744187547357501e-07
aF2.0034897637856866e-10
aF2.3600931799128207e-07
aF6.9754343631088651e-07
aF5.6282005701569409e-09
aF0.0016297583264509644
aF3.9014012746885754e-09
aF0.17185827324637445
aF0.068690772167070424
aF1.4517353400878329e-12
aF1.6145011769312313e-10
aF6.217784783004323e-07
aF7.0701691964130731e-07
aF1.7343515081185235e-09
aF1.6747279728582254e-13
aF2.5985109588443047e-09
aF0.00021794280645537792
aF2.4217632197133031e-05
aF5.7881257365191878e-11
aF5.997594639660228e-06
aF2.8499561136920373e-11
aF1.3434920495762132e-08
aF-2.6827918193294371e-10
aF2.3622160465627136e-08
aF2.4161047873839127e-08
aF5.6280631183594665e-10
aF1.9871711809410073e-10
aF8.7308618135068994e-13
aF9.7050896091663305e-06
aF0.0017998854706702499
aF7.1629033424429224e-12
aF-3.5031652363484362e-11
aF4.0619831551943144e-09
aF4.4131954063760374e-07
aF1.230865573967333e-09
aF2.683257628198658e-09
aF1.7065175191298216e-06
aF3.4092474776181078e-12
aF4.0517277238604803e-09
aF9.6388072979394608e-07
aF9.4798977476363364e-10
aF6.6975450096691226e-13
aF-3.9749914398145352e-12
aF-9.3565729404573129e-12
aF-2.1104501708542054e-12
aF-6.050490673055219e-11
aF-3.2457943817873341e-12
aF1.3114734169754923e-10
aF2.8328357286954201e-11
aF4.2726738520906885e-12
aF4.8112405394419062e-13
aF8.8079875443123574e-17
aF-4.3103432808098288e-16
aF-3.2455347506143255e-15
aF-4.0117979766939717e-13
aF8.2345844625121794e-15
aF-5.3095109415000151e-08
aF1.012347760825851e-14
aF1.2854492099868783e-13
aF4.6693826482366605e-17
aF2.7823069207013895e-12
aF7.1913253196763791e-14
aF-4.5437211605005608e-15
aF6.7963728520536993e-14
aF1.2659005099015348e-15
aF1.6908480142176632e-13
aF-3.5919132802515084e-15
aF3.0581879506558015e-14
aF-1.0524607770556597e-15
aF-5.0045894012235077e-07
aF-9.479668661307211e-17
aF-1.4732541826036525e-11
aF-6.2293841874690245e-16
aF-3.4527509715189681e-10
aF-7.214799032200733e-12
aF9.220801109395826e-14
aF-9.0735749618780817e-15
aF2.2841052445420184e-13
aF8.3758543654726705e-16
aF-2.35397657492518e-15
aF-3.318109299681164e-16
aF-8.4157153867404428e-15
aF2.7189950955421766e-11
aF5.6326524811529399e-10
aF2.3312435748649971e-14
aF-5.7086480527347132e-09
aF-3.3363292990575818e-12
aF-5.4027948947197645e-15
aF1.1788400686230179e-14
aF1.476568298164996e-10
aF6.6437326309576322e-12
aF1.5143217252048159e-14
aF2.5679279339061013e-08
aF4.4751327135604994e-14
aF7.9715169945668321e-15
aF0.00028054446399430264
aF3.2057959087220876e-13
aF2.6257187785333981e-10
aF-3.8604253666190621e-09
aF1.8692757197622491e-10
aF1.1739147125468279e-12
aF1.840082485220738e-09
aF1.1936695903283842e-12
aF3.2304150528920672e-09
aF-3.1124050485487473e-08
aF0.022145469988086603
aF1.232278272996938e-12
aF3.6001756605219548e-10
aF3.5887289802766694e-14
aF4.3545722147529191e-10
aF2.4581192201454597e-14
aF1.1615058697192174e-15
aF1.2727654635643175e-08
aF0.015732580014777387
aF3.1068687955948898e-11
aF1.9434767817658758e-08
aF1.8999885602869571e-11
aF3.0620366009851037e-12
aF4.2001756651335581e-11
aF1.0435951361185175e-09
aF9.3540529908369368e-11
aF1.0731090915208039e-12
aF1.0842655957491972e-14
aF2.7541598470628827e-12
aF6.7881410166271369e-12
aF5.5711733466267275e-07
aF2.9696842655037968e-08
aF5.5655225505083083e-09
aF0.0028645947301231328
aF3.8166622415451938e-10
aF2.7777939200176247e-10
aF7.0000000538020487e-10
aF1.2840670558011567e-07
aF1.9997938376758013e-05
aF4.7962964745719767e-13
aF2.2218166716528979e-05
aF1.7820549180533449e-06
aF-3.5713718727399555e-06
aF-0.0016778359107233565
aF-1.6391432297341235e-10
aF-5.029513993832322e-07
aF-2.0100721776425483e-05
aF-2.8485663232953452e-06
aF3.6560192713516884e-08
aF-3.4876408194447244e-08
aF5.234973886213672e-12
aF1.7982360491005491e-11
aF-4.3302585190217727e-07
aF3.6260929605569765e-13
aF-4.4009469239788146e-11
aF-7.7673247132066408e-12
aF-1.6644725415243912e-11
aF-5.2492688731510787e-10
aF2.9200794390372371e-06
aF0.073460273177345728
aF1.5686380938403822e-06
aF1.8557367177109546e-09
aF2.6373410916310127e-06
aF8.2745982079993682e-09
aF-3.0012370892352965e-08
aF5.380046622237639e-10
aF2.1895078630352849e-09
aF-3.9561529073494802e-13
aF-7.4907182432100003e-13
aF-7.5833836633411114e-07
aF-2.6145317294611216e-07
aF-1.724004442253039e-08
aF-3.3987095064783523e-06
aF7.0636631446659198e-09
aF2.8908098423860175e-08
aF-5.3359245952481416e-11
aF-6.5283189383443954e-09
aF-5.3265855092308076e-05
aF-5.006864992092818e-07
aF-6.6826238534321065e-13
aF-5.1860868635783709e-12
aF-5.7486541620109309e-14
aF-3.4154404447154566e-12
aF-3.4894200566009292e-13
aF-1.0156160591213693e-11
aF-2.3785499018293347e-11
aF-5.2095071226259286e-11
aF-3.1879424474722702e-12
aF-1.749356662676219e-08
aF-5.0712458867879476e-13
aF9.7902333614911671e-12
aF-1.0350578522531212e-09
aF-7.2794471942798419e-13
aF4.2423351859035516e-13
aF-2.2030086840317252e-10
aF-1.5521820591982277e-14
aF-2.4657401586943553e-13
aF-3.1951663030506821e-09
aF-1.1976786010880739e-14
aF3.0588752096431767e-14
aF4.9465312892122313e-10
aF-5.1581154227921934e-14
aF-3.9702417165906742e-15
aF5.1015081908653754e-05
aF-6.8221221554473631e-14
aF-1.2368599995794403e-14
aF-2.2341720610037126e-13
aF-8.6521324783975655e-14
aF0.030403803066718086
aF-3.2508800982939114e-10
aF2.033660433331465e-11
aF3.7910962072148297e-11
aF-7.6708030065352576e-09
aF6.213019787358521e-07
aF1.0046351877453052e-07
aF-3.8365316624913126e-05
aF3.8025276150381736e-13
aF6.5987018948626032e-07
aF-1.2207094133761192e-13
aF3.0392272388152128e-10
aF2.0974380673598986e-12
aF-1.090191295462567e-13
aF-4.2515902736002063e-13
aF-9.3526784728621856e-08
aF1.8686037331968155e-11
aF-0.00025125959492114136
aF-2.2227864704461941e-15
aF3.0818143873995725e-13
aF4.5382078161796161e-13
aF1.2742468884926601e-15
aF3.6765530426522696e-12
aF8.5851629081833243e-12
aF-5.2691917475739932e-10
aF1.0214348518811474e-05
aF4.4526975257281794e-12
aF-1.4213432204239003e-06
aF-1.0790118826012611e-14
aF1.0635103743304613e-13
aF0.00016241991648641946
aF3.8131648569205497e-11
aF3.7792066267332365e-06
aF3.684448884796115e-05
aF1.3206750511953511e-11
aF1.2464358081368704e-09
aF2.3179412953537984e-07
aF2.1856897575498664e-06
aF1.2034133955271726e-05
aF3.0384101642413327e-10
aF1.7517467967100914e-08
aF0.00030545912952885374
aF7.4753007332598784e-06
aF0.0043374365573343602
aF1.1892405879652986e-06
aF3.2061700830596587e-08
aF1.7076934956193305e-07
aF1.8321790068659212e-07
aF-2.7000954733893541e-06
aF0.091021343909090127
aF1.5059218931368948e-09
aF4.0299797950155354e-07
aF-2.0123248598789455e-09
aF-0.0054105151040112808
aF0.0019276087353684757
aF0.024089420214932673
aF1.7426062521779988e-07
aF4.3301439758572106e-07
aF2.8845481493899305e-06
aF6.2628918812090601e-07
aF1.2102172595021886e-05
aF5.2040854128366338e-07
aF2.2449696633164765e-09
aF1.787911891867977e-08
aF3.3485319641889798e-09
aF-2.5454011115421308e-05
aF-1.2775457316320618e-08
aF-1.0960253606442868e-06
aF6.7864381415806404e-07
aF6.7633080585499726e-08
aF1.7687526385421462e-07
aF2.8051697363480764e-09
aF7.3237066730668159e-07
aF3.4377992704380684e-08
aF2.4122485008436397e-08
aF7.9434157381941505e-09
aF-0.0013819632804472918
aF0.00035190943724336036
aF1.0963766263489453e-10
aF4.5731587537931389e-07
aF6.8854721616614294e-08
aF-1.0478637780512156e-11
aF-0.0007236462962724999
aF2.4994311214976902e-07
aF4.5439044295638607e-11
aF-8.1105723963457818e-12
aF1.0041922875089968e-09
aF3.0020007103323803e-10
aF7.9243252107670576e-07
aF6.8722615166818807e-11
aF7.709518596157402e-07
aF-3.030323416823216e-10
aF5.0516360970148368e-08
aF-2.8536138587470682e-11
aF1.3284258053307511e-12
aF1.029529235510235e-08
aF-2.3447978493382335e-06
aF-1.2462907201284243e-09
aF0.0006378588113628217
aF1.0836470626605593e-12
aF1.3957084601947992e-06
aF5.5566569095711661e-07
aF2.2209003263363972e-08
aF-2.5085869384517238e-06
aF5.0664579825092324e-08
aF6.1499675933723172e-09
aF-1.8869688205816795e-11
aF4.3002711185392942e-08
aF7.5334352073808636e-08
aF-1.7781757228801595e-09
aF0.00063777863114762795
aF-3.8028406996879778e-08
aF3.7206521610088549e-08
aF-6.6568440051945597e-05
aF4.8007636579899172e-11
aF1.3863388293335817e-13
aF1.3941277645238359e-11
aF2.0678859309027581e-06
aF-4.4107289102324573e-08
aF-4.0715207826968905e-06
aF3.1347333294274749e-07
aF5.999473147559053e-08
aF-2.7112596138287184e-08
aF-5.3818334956048152e-08
aF6.1492192446971751e-07
aF2.2582184893508793e-09
aF-0.25783284532483813
aF-8.0739949457954703e-14
aF7.9877057618250079e-08
aF2.0790882523969763e-06
aF3.8137528451653044e-08
aF1.4543392880288883e-11
aF1.1670039416182202e-07
aF5.9434691762989326e-08
aF-3.8034821414095276e-09
aF6.7727158704660456e-12
aF-1.4675193881645538e-05
aF-0.007606193025511002
aF-0.012778817249147787
aF-2.767393400675344e-13
aF-2.0274598300231454e-12
aF2.3255011442149272e-13
aF-2.6143408241868506e-09
aF-3.3214615962973616e-08
aF-9.4850903710965053e-13
aF-4.0331411863574621e-05
aF-9.8770570802295867e-12
aF1.4060631622712546e-09
aF-2.6704898834554178e-09
aF-6.3438509899218778e-11
aF-3.1601619119603632e-05
aF-0.0040526822502318354
aF-1.4060784346931964e-09
aF-1.5462410870629161e-06
aF-1.0423886147851251e-07
aF-0.013292505161156015
aF-2.3748234308755661e-07
aF-4.8673819624995022e-09
aF1.7424688003805238e-10
aF7.1160322795039225e-13
aF5.4028636206185025e-07
aF-4.5515559129566399e-08
aF8.5123134555215336e-10
aF-3.024466443008584e-09
aF-0.00015803367690477049
aF5.5033485207837511e-05
aF1.8099499967298137e-06
aF4.7790462739888557e-09
aF4.0357527705094879e-05
aF4.7659196273299868e-07
aF-4.8127066919483063e-08
aF4.772906760368302e-09
aF6.3452102354746857e-07
aF1.5571608687512135e-08
aF0.0017915085472352415
aF5.3520140917636957e-05
aF0.18020923356408219
aF-1.4828070825281702e-09
aF-1.3398648493650655e-09
aF3.9979840710477264e-07
aF0.062526975395629916
aF-0.00079710588219085823
aF1.729594148683692e-07
aF6.6265282476403342e-05
aF1.2152189776880874e-06
aF0.17751212384918244
aF0.0013644152676363075
aF0.001520132881753623
aF2.5766790316786809e-08
aF6.6200985580028894e-07
aF2.6696575364595966e-08
aF8.2341262898539283e-06
aF1.4667939481223242e-06
aF1.2115917774769395e-05
aF8.9126799967225374e-07
aF-4.4923065520339125e-08
aF0.065335879239142733
aF0.00053856897821450886
aF0.0018296208761906906
aF0.00027629109448354622
aF-3.352235526509836e-07
aF3.3259440521372425e-06
aF0.00025952044794939325
aF6.315642826595604e-05
aF1.0880302477578201e-07
aF1.2277958171570564e-05
aF0.00081928907506114074
aF2.8826314604362507e-06
aF4.6405406793998078e-05
aF2.3649498100902731e-05
aF0.00075732809562266933
aF8.8995457138526964e-06
aF-0.00087359017127476525
aF1.1847581321254169e-05
aF-2.3897751319564653e-08
aF-3.1094269262701204e-08
aF1.5211332253908029e-06
aF2.5485625028840577e-07
aF-1.6937726830194939e-08
aF9.7891642919552504e-05
aF9.0838838466887107e-05
aF2.8603184519794637e-06
aF1.6910771005467882e-07
aF2.1251422407620968e-10
aF4.9553663853054905e-08
aF5.7571838096653555e-07
aF1.4527585923579252e-06
aF4.1100531032557362e-09
aF4.4374938296852423e-07
aF3.246328916555293e-07
aF3.7962659220420867e-10
aF3.7422855466892375e-09
aF1.879156976758513e-09
aF1.1393990389586431e-08
aF0.00016160589639692822
aF2.5038524876498047e-06
aF0.0011758772187663333
aF5.4747814555418477e-11
aF1.8763468511212445e-10
aF9.512962541140062e-10
aF0.0022143560935343897
aF0.0014017868841275857
aF1.388576239148037e-09
aF5.255515293725224e-10
aF7.6217632596805395e-09
aF0.19686915503915806
aF0.00065121072624533085
aF0.015441716738898192
aF7.1655760162827148e-08
aF1.6264976643664169e-10
aF1.7311366632998012e-09
aF4.0548432979365818e-10
aF1.5335497044293845e-07
aF8.2038105322997055e-06
aF1.9027070513925751e-08
aF3.0929556192060242e-06
aF4.7770914039803212e-11
aF4.3005536583452156e-05
aF2.6254286025165066e-05
aF4.5213776071998907e-06
aF7.4596083197148082e-08
aF1.3909511007599674e-09
aF0.00025906762063882254
aF-6.4643733076746033e-05
aF-4.1710664289127259e-08
aF1.1438204051107579e-07
aF0.00061261426151433041
aF2.8633347553129445e-06
aF0.0014273223736140659
aF0.00084057883124783524
aF4.7722195013809275e-05
aF-2.0907869276042991e-10
aF-2.2894429560106334e-08
aF-3.3587339420460181e-08
aF-3.8194112774946957e-12
aF-3.2845939697301589e-11
aF-9.8148983229269713e-05
aF-3.6642969240440756e-12
aF5.4520408192706948e-09
aF-2.3131610272860541e-11
aF6.2612653682722725e-11
aF-1.2108892460676225e-07
aF-0.0042420984633634558
aF-4.7811996854826312e-05
aF-2.6237409998919517e-08
aF-7.737161679871834e-09
aF-0.0034494063111137415
aF-2.2324920945901284e-11
aF1.3952808323804322e-08
aF-8.0635333367654223e-10
aF-2.2934596029812939e-11
aF6.6544615073716585e-09
aF-2.8769043022081226e-09
aF-0.0026079798604481431
aF-0.018794089717205503
aF-3.2053453722748086e-05
aF-1.8211141371691778e-06
aF6.5652781994432484e-07
aF-1.3647970781848497e-09
aF1.6608071602583889e-08
aF1.854820372394454e-11
aF-1.3638501880244657e-11
aF-4.7793593586386596e-10
aF-4.1120461543191243e-11
aF4.7293269043577336e-10
aF3.247993610546935e-11
aF-0.00060304379830457993
aF-3.070100439770308e-10
aF6.6568669138274721e-12
aF-6.7547631384736065e-12
aF-1.2557978027871169e-05
aF-3.9547096634759918e-07
aF4.8947195977751003e-07
aF-8.1635677004833924e-10
aF1.7016837975852815e-08
aF-1.1554503544193432e-08
aF0.00021164293240443711
aF0.0015389637780077079
aF-0.00080114543779443109
aF-6.132427216772303e-11
aF1.6097132726525164e-08
aF-4.7881486374660943e-09
aF-9.4076591918522151e-11
aF1.1838723316527999e-07
aF-3.5497079422156901e-10
aF2.9385437971647219e-07
aF4.6120881573224675e-06
aF2.8530487791352266e-09
aF3.4079187769091821e-07
aF1.204711551392215e-06
aF-0.038459776554622384
aF-0.0002648940496095715
aF2.1502348300122681e-06
aF1.245328557546099e-05
aF2.32224048213038e-10
aF-8.2141957792200446e-09
aF7.3909969641418344e-06
aF-0.0012656256063065846
aF-6.1482799907477617e-11
aF-4.4194418269501829e-09
aF1.7787637111249139e-07
aF-0.014680997401983373
aF-0.00032859532152829677
aF-0.018791875216023959
aF0.1936474376305618
aF4.03440116116765e-06
aF3.7034935949573836e-09
aF1.5640029137810836e-05
aF-5.488488454234501e-06
aF4.8351189711477145e-07
aF-4.7114123534201494e-09
aF-3.0309724947557374e-06
aF1.5280669049523232e-06
aF5.9044405020269826e-06
aF-0.0072638616876883628
aF-1.3546409175936358e-06
aF-5.4947501472305876e-10
aF2.8040701219682756e-08
aF-2.2306059504803313e-06
aF-4.2654194516683931e-07
aF9.4330877743851023e-09
aF-2.0537283957628256e-09
aF-4.5245542709637588e-07
aF-0.045400557792345586
aF-0.0067283113036706258
aF-6.0292238255014364e-09
aF-2.4294070668951112e-09
aF-1.7427742488193574e-14
aF-6.744072443114434e-12
aF4.8869153901629048e-09
aF9.8242145003113947e-07
aF-4.4076515172112097e-15
aF-4.535191512846135e-06
aF-5.5045168610622885e-13
aF-2.9923256310323295e-05
aF3.2074300578698471e-12
aF-0.0019267458435287712
aF-3.7932038014427813e-07
aF-2.7728991087853176e-06
aF-2.7575655971558762e-09
aF9.3484021947185172e-08
aF-1.5803520414696467e-13
aF-4.835653505915673e-09
aF-8.2613112009101101e-10
aF-1.442946061260399e-08
aF-2.0019243405366647e-10
aF-1.7915238196571832e-07
aF-1.2927265190420865e-07
aF-3.4175022216775829e-09
aF-5.549814864541296e-08
aF-6.2520026443646455e-09
aF-1.7330380798315396e-08
aF-1.4747126988990825e-07
aF-4.4553625633570015e-07
aF2.1963117270103009e-10
aF-3.9061739065453494e-08
aF-6.4464587567370185e-07
aF-1.4262303954452361e-09
aF-4.9410255811022575e-08
aF-2.5136497463253892e-12
aF-2.1427131622059934e-07
aF-8.7498759788242844e-07
aF-5.4069719021208119e-14
aF-5.3510290205484576e-13
aF-1.3650338007249455e-07
aF-4.0172960485929744e-06
aF-1.333549702892183e-10
aF-1.800817088408692e-06
aF-0.0008700011521184717
aF-3.1907983903753635e-05
aF-4.8141804806656784e-11
aF-5.5013631059313327e-08
aF-2.3702417042930631e-10
aF5.8272155004789046e-10
aF6.0105991069435642e-07
aF1.7623458575376136e-14
aF-1.3175289322753661e-13
aF8.0551335046975016e-12
aF9.7891642919552508e-15
aF3.8016494507765273e-07
aF1.5544423776455955e-09
aF3.1473025326854736e-14
aF-1.0868084540024861e-06
aF-1.1697147965128673e-16
aF-1.0199916080076592e-05
aF-0.038173495005325693
aF-5.7818716797340722e-09
aF-3.4273452976189926e-15
aF-7.5589783330783149e-13
aF7.5022031045101392e-15
aF-1.7216830341179046e-07
aF1.135550388629341e-10
aF-1.0063227903698603e-11
aF1.949845381715554e-10
aF3.7203161677261384e-11
aF-4.3726165812770077e-10
aF2.3557710845033267e-10
aF-1.3152075241402315e-06
aF-8.9035165435575335e-07
aF9.073574961878081e-08
aF1.3976327853594502e-11
aF1.4098278142798776e-05
aF3.7817571211974958e-10
aF-3.5941201452220805e-07
aF-1.0425031579496877e-05
aF-9.5655760347291316e-09
aF1.5619869540847829e-14
aF1.5931274224238576e-15
aF6.7760758032932136e-09
aF2.0985605903726116e-09
aF-1.4529800424760795e-14
aF2.3331908086625608e-16
aF-7.0064526520724066e-08
aF-5.5797259029140651e-09
aF-2.1087014785418838e-07
aF-2.8193730887538341e-10
aF-4.0133557637320228e-05
aF-0.0007327456052653497
aF2.3587568429929241e-08
aF2.2114085160996462e-10
aF-6.3799168143371432e-13
aF3.5923638166987877e-10
aF2.1052193663391821e-10
aF3.6239242766412585e-10
aF3.5135199384248919e-11
aF7.3760452630609349e-11
aF2.818937824728496e-10
aF5.5686381245844105e-07
aF3.2009010974897811e-07
aF3.8095911101861984e-09
aF6.993180917405091e-12
aF4.1382230855271555e-11
aF4.1652399999419772e-14
aF2.2164636877623405e-09
aF5.0662518048130198e-15
aF9.8611737614102471e-13
aF2.7449658490539949e-15
aF1.852056064023011e-07
aF4.0149822766688107e-12
aF1.3485930385047326e-14
aF1.3807491229029288e-14
aF3.2002138385024056e-13
aF8.5843992870862387e-13
aF8.9889657443212023e-16
aF3.6760566889391652e-14
aF1.4065060625075631e-12
aF9.9814440842009354e-13
aF4.1741896391997991e-14
aF5.0757436150497705e-17
aF2.2810583963646536e-15
aF2.7526631497125986e-06
aF1.0145088085305979e-15
aF1.5077545837698956e-11
aF8.4234279598209886e-15
aF1.912282859950005e-07
aF1.9407964717151117e-11
aF1.8626245800066498e-12
aF3.737963451279744e-13
aF6.8295827335658717e-15
aF7.6482761841712863e-17
aF3.2977893422877653e-15
aF1.0701920589299441e-15
aF2.0808674895531814e-12
aF9.0787675853382501e-14
aF1.9409721045674411e-13
aF3.8676110411426207e-14
aF1.3051124532367846e-07
aF4.060326097413643e-11
aF3.0952388462863047e-14
aF1.5569775996879135e-17
aF0.012110114254431557
aF2.9634149362967392e-08
aF1.5284487155008651e-09
aF0.0028645947301231328
aF2.2593333761526216e-10
aF2.603107957848749e-10
aF6.9508992172595638e-10
aF1.2588293785425393e-07
aF2.0001069223256058e-05
aF1.1484403127481145e-14
aF2.5788171707505151e-08
aF1.1237371702574557e-11
aF0.012790882462481709
aF-5.5043259557880176e-11
aF1.5859799289551539e-08
aF7.6972242964943537e-13
aF2.1468290799192749e-12
aF9.7388416616574304e-13
aF2.1476079734383003e-07
aF3.8034745051985573e-08
aF1.1628040255842596e-11
aF1.9041502952660634e-12
aF2.7963422764657883e-06
aF1.1934863212650842e-09
aF1.2659005099015348e-08
aF3.3905922142163518e-12
aF7.249230707468238e-14
aF5.4064679121967368e-13
aF3.0242984463672253e-06
aF0.086765683535042451
aF1.9128250309289343e-06
aF-9.2414188790170849e-13
aF2.6373410916310127e-06
aF8.5378947622738396e-16
aF7.0124699863174257e-11
aF6.5881868323557617e-08
aF2.1901645771787768e-09
aF3.4170440490193328e-15
aF4.6575770660757454e-11
aF2.4648925392765925e-11
aF2.5469512623692106e-12
aF3.8820892971433282e-12
aF9.3196900414681694e-09
aF2.1669046785616062e-08
aF1.3077316735997819e-06
aF-3.6950632180455793e-13
aF2.4647703599010591e-08
aF1.2401893875627253e-07
aF-3.7345577011867505e-07
aF-2.9571837881445361e-08
aF5.2384254535724899e-07
aF-0.0028645870939121619
aF-2.2320110132989656e-10
aF-2.5659883363195086e-10
aF3.2700546240416839e-08
aF-1.2402275686175797e-07
aF-1.9988698561483303e-05
aF1.84548128637712e-11
aF8.3243099414195182e-08
aF1.567362846608252e-05
aF-9.4742469515179162e-06
aF1.0167156735011699e-09
aF1.4189683588119696e-10
aF5.7547707669985708e-13
aF1.2624260339098039e-05
aF3.8679012171595127e-06
aF2.1478370597674254e-10
aF1.2613340557409741e-09
aF1.2782558992523497e-09
aF2.6898629506884324e-13
aF1.0118590433237175e-06
aF1.7322210052576601e-05
aF1.9070444192240107e-05
aF-5.3107250990443777e-09
aF4.5325341114282839e-12
aF5.4659539956595598e-11
aF-2.9134282992816378e-06
aF-0.073438968148737099
aF0.046257187939054124
aF0.053448513258730498
aF-2.6373410916310127e-06
aF8.3608110298601203e-12
aF-6.6891604500231423e-11
aF-5.3777710313683306e-10
aF-2.1848574105540448e-09
aF9.2184338839948659e-13
aF5.0248406327181688e-12
aF1.541040827391776e-10
aF-2.4168378636371132e-12
aF2.8384483437589856e-11
aF6.6747891009760276e-09
aF-2.8921843603607683e-06
aF-3.7114810716328793e-08
aF0.00021983353229175728
aF1.1230880923249345e-10
aF1.9323737310142783e-12
aF8.9138254283681625e-06
aF-1.19053110761937e-12
aF6.0382421906579955e-08
aF-2.5534496779053935e-10
aF-8.0826238641925165e-12
aF-1.6423122572870208e-15
aF-1.6202130627374177e-11
aF3.162834585800157e-09
aF-4.2699248161411871e-10
aF-2.1892100508074221e-16
aF0.0007385720342360986
aF-3.7151006356330567e-13
aF-4.5758848811097277e-12
aF-2.2015883487911495e-09
aF-1.7394066797812181e-06
aF-2.4524531516050985e-14
aF3.6742010896732514e-13
aF-1.0363789167510762e-16
aF-4.0225726703738233e-10
aF-1.3135122853047057e-09
aF1.1869497246740472e-14
aF-3.0671299537026519e-16
aF-2.387461360032302e-16
aF-2.8124317729813427e-06
aF-1.6910694643358176e-07
aF-2.8106983530909624e-14
aF-1.8499026525292347e-14
aF-4.3317628525830275e-15
aF-8.5788248530775283e-11
aF-8.7042114372186778e-13
aF-4.2213966954215152e-12
aF4.5191554698073774e-14
aF-3.0608377158626818e-13
aF-3.8197472707774117e-13
aF-1.9686380969147848e-16
aF-2.8077889567110734e-09
aF-2.2852277675547314e-15
aF-1.2548280039938206e-15
aF-5.120583445870528e-16
aF-7.3126723482139558e-18
aF-8.3660036533202904e-11
aF-4.9605742811876014e-13
aF-2.5750143376870382e-11
aF-6.2539804230060927e-11
aF-3.0234737355823751e-14
aF-3.417731308006708e-15
aF-2.085395762658888e-14
aF-4.8912374855723978e-13
aF1.7524035108535831e-18
aF4.2228857565608294e-15
aF1.872345476572526e-09
aF6.276232341775113e-11
aF1.4496201096489109e-14
aF1.6263983936237958e-11
aF4.0524455276917385e-11
aF1.583337799959244e-06
aF1.4069260541109592e-14
aF3.9287160013312608e-15
aF3.0858921240579997e-10
aF5.1985338874608354e-16
aF4.5171471463220466e-14
aF2.7515558991218274e-11
aF6.7559467511740865e-10
aF4.7592073978866203e-14
aF2.2587377516968963e-17
aF1.0609064263894059e-14
aF6.6251308210326719e-09
aF2.9319537470968892e-10
aF6.8810355230873735e-16
aF1.0171356651045661e-15
aF2.6267878480693156e-13
aF5.5210950750799768e-12
aF4.7701271795749178e-12
aF5.853850604345186e-14
aF1.3341605997698501e-15
aF1.8239929887051833e-13
aF4.3171929620506703e-12
aF9.6705739355781465e-15
aF1.2375014413009907e-14
aF1.3783284440251732e-13
aF0.00042616242548158866
aF4.2299187068649701e-12
aF2.5841548822191303e-15
aF1.2916803581390818e-12
aF6.3283265730181645e-13
aF2.049620114260515e-14
aF3.5027834257998947e-12
aF4.9955404912230657e-14
aF3.0627238599724792e-11
aF8.2758963638644093e-08
aF1.9589248365598796e-09
aF3.1861479378941234e-12
aF1.2107823391140307e-14
aF1.6057424429476807e-13
aF7.7679356100843077e-06
aF4.5878584599120006e-13
aF1.4235271767615597e-05
aF2.3390859635320469e-13
aF6.7312436086834278e-13
aF8.032301233894698e-14
aF3.9649803672317674e-13
aF4.0805467840644205e-10
aF1.1778168163529258e-13
aF6.8053453999444333e-13
aF4.5289909095378154e-16
aF7.2755832715285985e-14
aF4.3183536661182376e-12
aF4.9684013974327097e-10
aF3.976938673612099e-06
aF2.766507600202727e-05
aF5.537887103004848e-05
aF1.5002940056513875e-16
aF4.4134550375490461e-11
aF4.2145393779697041e-14
aF1.6862815600571025e-10
aF1.2702226053110288e-14
aF3.9059371840052537e-15
aF1.5364132835434483e-15
aF1.3428658802766046e-14
aF1.0453361922198684e-13
aF0.00018769577479989114
aF3.5994196756358414e-07
aF7.3189340412100417e-16
aF3.4660761596630794e-12
aF1.3081363927812362e-11
aF1.8119659564261146e-09
aF4.9111756324172552e-10
aF2.1467603540205372e-07
aF5.7456073138335662e-16
aF6.7452407833929719e-11
aF0.076064602928949815
aF2.4217479472913616e-07
aF1.7865679187371095e-21
aF-7.0723836975946158e-22
aF-9.7198274963400477e-12
aF-6.9768165172945865e-22
aF4.0344927956992996e-21
aF-6.8329044853381852e-18
aF8.7313199861651502e-18
aF3.2765988568436917e-18
aF1.7877209865937061e-24
aF-2.4915734604086982e-25
aF-5.1825742065317856e-21
aF3.7917452851473512e-23
aF2.0594173729360992e-05
aF1.3427589733230129e-14
aF-9.0497499836490678e-16
aF-1.3747699697127631e-13
aF-1.8872360879656584e-10
aF-6.9817876906366019e-15
aF-1.9726852887293286e-09
aF6.4781184874221111e-16
aF7.5239663057770259e-05
aF2.2856095781032729e-15
aF5.4569203580810599e-07
aF7.4572258218919064e-08
aF2.4912527395479232e-05
aF3.635737495013144e-14
aF1.8008247246196628e-15
aF-3.3055171877902532e-08
aF1.375846675459651e-12
aF1.0449162006164722e-08
aF-1.9572295977243539e-14
aF7.4542858806681336e-11
aF4.1878508206266271e-10
aF1.9217670339757852e-09
aF1.6225039260286689e-10
aF9.0265359022977224e-12
aF-2.512672311321122e-12
aF4.7210034343995214e-13
aF3.095162484176596e-12
aF6.4694513879702105e-09
aF-9.551983579201042e-07
aF1.7984804078516161e-10
aF1.0094230920240204e-11
aF5.497461002125235e-14
aF-8.7609484847319995e-08
aF-3.1961437380549492e-12
aF0.00052088962257482618
aF1.3482646814329865e-07
aF4.7350540625858613e-14
aF9.5257913755710677e-16
aF4.7619793424690345e-07
aF8.5475927502068017e-09
aF-1.1370623584015669e-14
aF2.3448742114479417e-12
aF4.5481196180197635e-08
aF2.3726776555927606e-09
aF3.1648276368635451e-08
aF5.3885762698920646e-11
aF3.2198236282755162e-10
aF7.960291764439702e-13
aF-1.1422549818617363e-11
aF2.5787560810627482e-06
aF-0.00018594937335086065
aF-5.500744572842695e-05
aF3.0798137001252129e-06
aF6.1616357237357554e-07
aF4.0185712958251038e-06
aF-5.1893933429287422e-07
aF-3.7306479611696815e-10
aF-2.996510274644348e-09
aF-6.2887786364001988e-07
aF-8.8053912325822728e-09
aF-0.0017913176419609704
aF-5.3520522728185501e-05
aF-0.180152725602898
aF-5.826215156841725e-12
aF-9.7891642919552507e-11
aF1.6145775390409398e-06
aF-0.0069760605324084733
aF-0.00033982055165542767
aF2.8496735738861161e-07
aF2.5356267614994591e-09
aF-1.009201641905866e-08
aF-0.17745714313019242
aF-0.00065019511018620934
aF-0.00058190829357949634
aF-7.0805391709114708e-08
aF-6.5935474524572886e-07
aF-1.4743537969834531e-08
aF-3.8021610769115735e-07
aF-1.7698217080780635e-07
aF-8.2032759975317469e-06
aF1.0679699215374304e-06
aF6.5790921050894929e-08
aF4.7099920181795737e-10
aF0.058638005872401866
aF-0.001834393508047464
aF-1.5101752626476511e-06
aF3.3490588627459674e-06
aF2.2566912471567122e-08
aF-0.00025947081257808282
aF-6.2953534140460898e-05
aF-4.8112252670199648e-09
aF-1.222503922954266e-05
aF-0.00060461914862786363
aF-2.8230002889649815e-06
aF-4.6390668906824361e-05
aF-2.3169638603495311e-05
aF8.0826238641925165e-08
aF5.4058951963739245e-06
aF1.0666488570394754e-05
aF0.00022696880782290771
aF1.1035852095054158e-06
aF2.8559963565699699e-10
aF6.3555191202853162e-05
aF1.0613111455708601e-07
aF-1.9857890267552858e-10
aF6.0395479827340084e-06
aF1.8499561060060305e-06
aF1.1998014677379665e-06
aF4.496086476464477e-05
aF4.1091291217282646e-12
aF4.5211561570817362e-07
aF5.9631935092366054e-10
aF9.8581192770219109e-05
aF1.7572219599761816e-07
aF4.0402504987713114e-09
aF-5.8274751316519132e-06
aF-0.00063528922637113487
aF-8.894963987270195e-12
aF0.00012330800751488759
aF-3.2789431736117389e-07
aF0.0069087320602786006
aF0.0003710908355810067
aF3.7745790828849091e-09
aF-5.9086251456390019e-09
aF3.7134741226962686e-10
aF-5.9020198231492269e-07
aF-1.9959222787135866e-07
aF-3.8003512949114847e-09
aF2.9240502687420725e-12
aF1.7599175424488874e-11
aF-3.2853881356711259e-08
aF-2.2850063174365767e-09
aF0.33480661553197588
aF6.2867779491258393e-08
aF1.1316788296671266e-06
aF0.00062872590304170013
aF1.0912450925765425e-12
aF1.0808293008123205e-07
aF-1.1660952325126904e-07
aF-3.8043603056711743e-08
aF4.0903287703180629e-12
aF2.8258027783912788e-11
aF0.00033746019884434186
aF2.1973120706474806e-09
aF-9.37551074366499e-13
aF2.0130197550772915e-11
aF4.884212171479228e-12
aF6.8207934547384379e-11
aF1.6090794671419368e-12
aF6.0924898333948237e-11
aF3.3861708480642373e-09
aF7.1148792116473258e-12
aF9.1507770547932461e-13
aF1.3911878233000633e-05
aF7.6764538026536766e-08
aF5.8429460950788296e-07
aF5.8907487757562716e-08
aF1.650666272089117e-10
aF5.4001527657238544e-11
aF1.3699209757462813e-12
aF1.1917070841088791e-09
aF1.2830972570078606e-07
aF4.5926540004016863e-11
aF6.961757909260095e-10
aF3.858363589656936e-06
aF4.3994731352614434e-11
aF1.8311175735409748e-09
aF1.1882478805390895e-05
aF3.5386201638860344e-06
aF4.952243175018418e-08
aF4.9268833183842665e-07
aF5.6186323978104826e-11
aF6.8869154055349194e-11
aF4.7208659826020452e-13
aF1.0232599063031777e-09
aF5.3583750555024029e-11
aF1.6168760385431617e-11
aF1.8613798776184033e-12
aF1.5228055555934164e-11
aF9.6299492932132904e-05
aF2.1172616710401927e-05
aF0.16717803954234825
aF0.0045711733389407205
aF4.2929250835853494e-06
aF1.2332480717902343e-10
aF8.4501546982189173e-11
aF6.0139132225049077e-10
aF2.2716200396046987e-08
aF6.6204803685514311e-13
aF1.4289794313947377e-09
aF0.0012251918692160009
aF0.0024962162766789678
aF7.8505594127887678e-14
aF7.3979688247582086e-14
aF3.5512733654647118e-12
aF1.3010347165783575e-15
aF2.0960253683302937e-14
aF1.5206521440996401e-12
aF7.6512543064499133e-10
aF5.3076095249682759e-12
aF-2.7574815988351974e-13
aF4.9816578596780844e-07
aF-4.1998167632179295e-08
aF1.3657363321342624e-08
aF8.3474476606611555e-14
aF2.9002787439898556e-11
aF2.2589057483382549e-13
aF-8.0682677875673424e-12
aF7.5277996836843859e-14
aF-1.1824443602012533e-07
aF3.8761941422738419e-11
aF9.5667978284844656e-12
aF-7.6699630233284642e-07
aF7.1559467542484897e-08
aF5.8717727914937407e-08
aF4.0077813297233111e-07
aF2.252598238076343e-11
aF9.5252568408031099e-14
aF6.4841587303000433e-07
aF1.4215264894872003e-08
aF-1.5820320078832307e-13
aF1.6658852405539958e-12
aF1.0340575086159414e-12
aF-1.2377076189972032e-13
aF1.352334781880443e-12
aF2.0998587462376541e-13
aF1.7390325054436468e-10
aF-9.6163568376852007e-05
aF-6.3986789846924894e-09
aF-0.0029932037952939759
aF-0.0032601504584125083
aF-3.9490588673575716e-06
aF2.3778168255761341e-08
aF1.7886067870663232e-09
aF-7.4629682525419764e-12
aF4.0518728118689259e-11
aF1.56141423826197e-08
aF1.6151349824418107e-09
aF-3.1544958434200029e-08
aF-7.2132870624285073e-09
aF1.2488183059597716e-12
aF1.3248367861744577e-16
aF6.1918369381254175e-11
aF1.4329578973105439e-18
aF1.3296705077189977e-18
aF2.1384674289062078e-14
aF7.0298118214321979e-09
aF9.3674927221456097e-19
aF5.9473865525269719e-20
aF1.4523233283325875e-20
aF1.9249513339506243e-19
aF3.2523233421673999e-18
aF2.2057806286141393e-14
aF7.4223588825990644e-21
aF1.5554579937047166e-10
aF4.174204911621741e-14
aF4.4590890343107701e-19
aF4.1257455168008064e-18
aF8.2775763302779942e-16
aF3.0151426294131916e-11
aF1.6022985117998333e-17
aF1.1100225353538317e-17
aF3.8991638648741204e-08
aF1.7544881964486218e-17
aF5.1828796549706192e-22
aF2.5168722273550824e-26
aF4.3541445869385523e-25
aF-9.4511092322762803e-25
aF1.33078539452074e-23
aF2.04319042462307e-21
aF1.8385399706046288e-23
aF1.3103356215408374e-22
aF-1.5936314123479328e-25
aF3.8534535060026879e-23
aF4.9255698900972832e-12
aF1.3755412270208177e-21
aF1.4107517958073486e-26
aF-7.9686152343979144e-31
aF3.4189760103949547e-27
aF6.3923332933757239e-19
aF-1.2282539898153066e-26
aF-3.4102707298881995e-31
aF4.4470849106646139e-24
aF6.8461685837945291e-23
aF2.651979708062108e-31
aF1.734145330422311e-31
aF4.0350120580453173e-26
aF3.6798213409477879e-29
aF9.7752663879883254e-40
aF-3.8354396843224828e-42
aF6.2648925684834195e-42
aF-6.4467260241209983e-43
aF5.6714826139396474e-41
aF-4.6760032431483763e-42
aF-4.0304150590408731e-40
aF1.0265740218645208e-40
aF-6.6756749014486441e-38
aF2.9272651135607951e-42
aF6.3838341905651816e-37
aF-5.7805811600800007e-37
aF4.756763810375952e-39
aF2.7183383813986848e-36
aF-3.1889504273204204e-40
aF3.557680146469244e-42
aF-7.6597305006275427e-37
aF1.1207895928227124e-39
aF-1.1165285871009851e-38
aF9.3052576027332863e-41
aF-5.0328281093936641e-41
aF-1.1389255938784511e-36
aF2.74091102102848e-36
aF-5.7418044807700887e-40
aF-4.9694781031795979e-41
aF-2.7175060344028635e-39
aF-2.8061471713523435e-41
aF-2.6022221573761316e-40
aF3.2403803082090098e-41
aF1.7889504165600108e-35
aF-1.4811576609584691e-36
aF-4.2862052179310122e-38
aF6.7265855199912168e-39
aF2.0824252765912324e-33
aF-2.2263143999147209e-41
aF-1.7192776276620906e-34
aF-4.6218319625212563e-44
aF-2.1601237232195026e-42
aF-1.4710396814221095e-39
aF-2.8384865248138398e-44
aF2.1089992907697464e-39
aF-1.6330877144342495e-39
aF-6.3270895068408886e-38
aF-7.3878584814328205e-37
aF1.4450383830664085e-42
aF-1.2963537192532343e-38
aF-1.3060135261313434e-39
aF-1.0491313890723745e-41
aF2.9639876521195518e-12
aF9.3102211398643302e-10
aF5.2952999528832862e-09
aF6.4319423196814573e-09
aF1.1460730873471548e-10
aF1.1446832969504626e-10
aF1.3155587898448901e-09
aF1.2154862450720667e-10
aF7.6322859583983524e-10
aF1.6163949572519989e-10
aF8.9083273564691603e-10
aF6.9173533424646759e-09
aF0.0006612111081327394
aF0.0001563285109949825
aF5.0450384107360336e-08
aF2.2973464343654498e-11
aF1.2064373350716242e-09
aF1.2636401914541669e-11
aF3.8424649984156529e-08
aF9.3514566791068516e-08
aF3.4067351642087023e-10
aF4.7183460329816697e-08
aF1.13836815047758e-07
aF0.0010628002067101733
aF7.1888435511108568e-05
aF0.006365560737711968
aF7.8012294899171589e-08
aF1.478171902468872e-08
aF6.3046161379537143e-08
aF4.6812187752414579e-09
aF2.5896147730632793e-08
aF1.4873048107899932e-09
aF3.1089000277131323e-10
aF5.995464136799365e-10
aF5.7499828627198558e-11
aF2.4384101596297288e-07
aF2.2501775591985874e-08
aF2.4069184255859955e-09
aF1.3413386380824371e-05
aF6.4997136920476386e-09
aF1.6135695591927893e-06
aF0.052541942292272686
aF4.4731243900751697e-08
aF1.4930701500729754e-08
aF3.6494597661277387e-10
aF4.7133214061628589e-05
aF0.00043427589963810335
aF4.7433622601221324e-08
aF1.576854656845003e-15
aF2.9298996063457337e-14
aF7.0203505560393305e-12
aF1.7808331242980108e-12
aF1.7047001009187621e-14
aF7.9320377838476039e-14
aF4.535191512846135e-06
aF1.5703409688868788e-14
aF3.6011454593152505e-07
aF1.5179183805720803e-14
aF1.3060593433971685e-08
aF7.0341491892636335e-10
aF2.6770799335232501e-06
aF2.7543507523371537e-09
aF2.6966591784524774e-11
aF-7.7111222004612783e-10
aF4.0594402969410264e-12
aF6.0922072935889025e-13
aF1.4235729940273847e-08
aF2.0020312474902565e-10
aF1.8039708435396478e-07
aF8.8456340643985859e-08
aF3.4173418612471953e-09
aF5.5415753929037624e-08
aF6.2219999714602251e-09
aF2.405200278117557e-08
aF1.4690313579367796e-07
aF1.5392310453916874e-11
aF6.5684472269961459e-12
aF1.9289679809212847e-09
aF1.7076247697205929e-12
aF1.2999427384095278e-11
aF6.730220356413335e-13
aF2.5204383378784634e-12
aF3.4269405784375379e-10
aF8.7483487366301171e-07
aF3.6423580899248599e-13
aF2.8575541436080207e-13
aF2.4648238133778553e-12
aF4.0159520754621065e-06
aF1.2413500916302925e-12
aF1.8004658227040335e-06
aF0.00091496316231476208
aF0.00013968997091062498
aF4.8087893157202674e-11
aF5.5013631059313327e-08
aF1.7918139956740747e-10
aF6.8434882737437661e-12
aF-1.3168569457099326e-10
aF-4.3595968415717301e-14
aF-7.5536482578206704e-13
aF4.010843450322617e-13
aF-1.2249093294100799e-15
aF-3.6499713922627847e-17
aF4.1659348951403236e-10
aF1.3018441549412662e-14
aF-2.3832996250531953e-10
aF-8.2361880668160555e-19
aF1.290634197236077e-06
aF3.831025954381339e-13
aF4.9307930584013358e-09
aF4.6949486825670241e-15
aF4.2335077260212636e-11
aF-3.2771257554006798e-15
aF-5.4531786147053489e-09
aF1.4290481572934752e-13
aF1.0447863850299681e-09
aF6.1502348607562957e-12
aF-2.422022850886312e-19
aF-2.652804418846958e-16
aF-3.0241762669916919e-16
aF2.2016952557447414e-05
aF1.6982704112813171e-05
aF7.7703028354852674e-09
aF4.2330419171520425e-14
aF7.340743059742754e-18
aF-3.8984842420977155e-15
aF-1.5697758892750368e-10
aF-5.5357489639330134e-10
aF-2.95576345290396e-10
aF-1.317735109971579e-15
aF1.4000611004481763e-15
aF1.0636096450730823e-14
aF4.3653239997998583e-12
aF7.4132641553327965e-16
aF-3.0275209273969184e-19
aF2.7841701561782736e-09
aF5.5237142954429738e-09
aF1.6589515609924758e-05
aF4.4795617159235848e-10
aF1.0592722772416467e-09
aF0.00058842274515871762
aF-1.7343056908526987e-11
aF3.403268324427942e-16
aF6.3102974789160178e-11
aF5.048551067782619e-17
aF2.7884693429548548e-12
aF-1.1240655273292017e-15
aF2.3015692590323231e-14
aF-2.4581497649893434e-12
aF2.4641289181795086e-09
aF1.6247795168979783e-12
aF8.6988660895390905e-05
aF-2.575350330969755e-14
aF1.8372647233724989e-10
aF2.6584246701214948e-14
aF6.102806354416425e-13
aF2.6069107909122262e-13
aF4.9132679542232637e-15
aF4.2915811104544821e-13
aF-5.1979535354270524e-10
aF-2.6545225663153969e-08
aF6.2943301617759971e-15
aF-1.1820090961759154e-10
aF0.00041233477465559638
aF2.0433278764205453e-09
aF8.7056623173031369e-15
aF2.4457256497397911e-11
aF-4.8363713097469315e-11
aF1.080294766044362e-06
aF-2.8242984448300242e-09
aF4.0263296861714751e-08
aF3.5805658707488439e-14
aF-5.7202016399335902e-07
aF-1.0414646332576537e-06
aF2.5716162238050157e-10
aF1.3838494245570888e-13
aF3.6923065458851069e-12
aF5.109709481448055e-07
aF3.9963957391657926e-07
aF-7.8244435712685048e-12
aF2.108968745925863e-06
aF7.0981253647773094e-15
aF4.2741934580738845e-14
aF-3.6180825752485683e-14
aF-6.2744989218847322e-15
aF1.214531718700712e-09
aF8.0707113750780099e-09
aF3.667320863588527e-14
aF2.9727005688372774e-12
aF0.083494330755135723
aF1.2946661166286791e-12
aF2.3909892895008287e-14
aF8.8346379206005799e-17
aF3.2517888073994414e-13
aF2.0945363071909803e-12
aF7.6710320928643815e-14
aF6.9465465770061879e-14
aF1.1362987373044831e-10
aF-2.744622219560307e-14
aF-3.2947577665323431e-13
aF2.7370547344882074e-13
aF7.0589057852310887e-12
aF2.0717040363881765e-14
aF1.0234431753664776e-11
aF1.8356763914905648e-10
aF2.5218434006970977e-10
aF2.1049291903222902e-11
aF-6.082578031554678e-14
aF6.6919782118713816e-12
aF-2.5000420183753571e-12
aF8.0142797760035221e-13
aF-2.6571723315222774e-11
aF5.7507617562388807e-11
aF1.3672864829613425e-14
aF6.7600321240434846e-11
aF-9.0411974273617299e-09
aF5.6915887574258625e-08
aF1.7758237699011414e-09
aF0.00042365240293547443
aF7.53713876970172e-08
aF3.5557405488826515e-15
aF1.5610018828695447e-11
aF1.060936971233289e-11
aF5.4900004240067269e-06
aF8.489328460499314e-10
aF3.7230728398866112e-13
aF6.1686992188837806e-12
aF3.8083845888528059e-15
aF9.3199191277972946e-14
aF1.2317971917057752e-12
aF1.801756342358105e-10
aF4.0437937006617797e-13
aF5.9613455461816633e-16
aF1.1629338411707638e-12
aF0.00040814173121150958
aF-3.7383376256173148e-15
aF6.6023672761286055e-12
aF1.9099614518148705e-10
aF0.052616089900799523
aF5.8409683164373827e-13
aF2.1508762717338185e-10
aF1.7872857225683684e-12
aF1.6087511100701906e-16
aF1.1973044267505028e-16
aF2.6980871499040238e-15
aF1.1419571696338736e-14
aF5.642648281313765e-17
aF1.3631705652480611e-11
aF3.2132870316844792e-16
aF8.5604215846378098e-13
aF1.1117635914551826e-14
aF1.6117826858256133e-12
aF2.5276163761910505e-11
aF0.001060570433106689
aF3.3390325177412579e-13
aF4.1362758517295913e-14
aF2.3405750246713604e-14
aF2.6604635384507081e-14
aF5.3352220638388242e-09
aF1.2233897234268834e-15
aF7.1470658408894055e-16
aF7.2844183676218572e-13
aF7.6737811288138826e-15
aF1.506662605601066e-12
aF5.4867168532892674e-13
aF1.0335611549028372e-13
aF2.3243328039363894e-12
aF1.0548890921443861e-11
aF1.2707876849228707e-17
aF2.246160912227927e-11
aF1.8850063143621741e-13
aF-6.9672559811590981e-09
aF6.3461800342679827e-16
aF3.1290367160432308e-16
aF2.7573670556706346e-16
aF9.1438281028097842e-17
aF9.2048414284667751e-16
aF1.1175365669491358e-06
aF3.0914971029105937e-14
aF2.0995456615878498e-12
aF5.5795120890068819e-11
aF3.4493910386917997e-15
aF1.3680653764803677e-12
aF3.5986636907497284e-11
aF3.7536176837699601e-10
aF1.231613922642475e-17
aF4.3919209226112849e-11
aF0.0065780917614523138
aF5.4162117173955248e-12
aF1.177709909399334e-34
aF1.3254935003179496e-27
aF3.4550723796541029e-22
aF1.298568220434777e-21
aF3.0522317060985485e-25
aF9.7676301770174877e-28
aF1.9176511162625038e-25
aF9.4678325343024133e-24
aF2.792516534769399e-27
aF2.7086098486218379e-17
aF9.7874843255416658e-22
aF1.1202092407889288e-26
aF4.6368600257118636e-29
aF1.2228704610808663e-26
aF1.0464663514435522e-17
aF2.2692757228366522e-28
aF1.4787140734478013e-28
aF1.638982869303736e-28
aF5.962895697008743e-20
aF8.7197129454894764e-17
aF1.2698407947624867e-27
aF2.3705776975757802e-28
aF1.6213355857501306e-21
aF3.7889046146661997e-16
aF5.1718758749616426e-19
aF3.1127486780424346e-24
aF3.0662976067068309e-21
aF2.3099080014124776e-25
aF7.5332213934736803e-26
aF7.6808828050167629e-29
aF3.651804082895786e-20
aF2.945660745789542e-29
aF1.0200985149612509e-23
aF1.1930510572397465e-22
aF7.2273147819819353e-28
aF1.2104692544642264e-21
aF1.5290748848004737e-18
aF1.0325226302108033e-16
aF5.4644038448324798e-20
aF4.3238211931733571e-25
aF8.512466179740951e-19
aF1.2054675362783279e-22
aF3.4925661755209141e-29
aF1.4498950132438611e-20
aF9.0264595401880145e-28
aF8.530487637632127e-24
aF1.4610133364174003e-22
aF7.7804589960764824e-14
a.