(lp1
F6.7690769352838715e-312
aF6.7690769352838715e-312
aF6.8444890180971249e-319
aF6.8444890180971249e-319
aF0
aF0
aF0
aF0
aF0
aF0
aF0
aF0
aF0
aF0
aF0
aF0
aF0
aF0
aF0
aF0
aF0
aF0
aF0
aF0
aF0
aF0
aF0
aF0
aF0
aF0
aF0
aF0
aF0
aF0
aF0
aF0
aF0
aF0
aF0
aF0
aF0
aF0
aF0
aF0
aF0
aF0
aF0
aF0
aF0
aF0
aF0
aF0
aF0
aF0
aF0
aF0
aF0
aF0
aF0
aF0
aF0
aF0
aF0
aF0
aF0
aF0
aF0
aF0
aF0
aF0
aF0
aF0
aF0
aF0
aF0
aF0
aF0
aF0
aF0
aF0
aF0
aF0
aF0
aF0
aF0
aF0
aF0
aF0
aF0
aF0
aF0
aF0
aF0
aF0
aF0
aF0
aF0
aF0
aF0
aF0
aF0
aF0
aF0
aF0
aF0
aF0
aF0
aF0
aF0
aF0
aF0
aF0
aF0
aF0
aF0
aF0
aF0
aF0
aF0
aF0
aF0
aF0
aF0
aF0
aF0
aF0
aF0
aF0
aF0
aF0
aF0
aF0
aF0
aF0
aF0
aF0
aF0
aF0
aF0
aF0
aF0
aF0
aF0
aF0
aF0
aF0
aF0
aF0
aF0
aF0
aF0
aF0
aF0
aF0
aF0
aF0
aF0
aF0
aF0
aF0
aF0
aF0
aF0
aF0
aF0
aF0
aF0
aF0
aF0
aF0
aF0
aF0
aF0
aF0
aF0
aF0
aF0
aF0
aF0
aF0
aF0
aF0
aF0
aF0
aF0
aF0
aF0
aF0
aF0
aF0
aF0
aF0
aF0
aF0
aF0
aF0
aF0
aF0
aF0
aF0
aF0
aF0
aF0
aF0
aF0
aF0
aF0
aF0
aF0
aF0
aF0
aF0
aF0
aF0
aF0
aF0
aF0
aF0
aF0
aF0
aF0
aF0
aF0
aF0
aF0
aF0
aF0
aF0
aF0
aF0
aF0
aF0
aF0
aF0
aF0
aF0
aF0
aF0
aF0
aF0
aF0
aF0
aF0
aF0
aF0
aF0
aF0
aF0
aF0
aF0
aF0
aF0
aF0
aF0
aF0
aF0
aF0
aF0
aF0
aF0
aF0
aF0
aF0
aF0
aF0
aF0
aF0
aF0
aF0
aF0
aF0
aF0
aF0
aF0
aF0
aF0
aF0
aF0
aF0
aF0
aF0
aF0
aF0
aF0
aF0
aF0
aF0
aF0
aF0
aF0
aF0
aF0
aF0
aF0
aF0
aF0
aF0
aF0
aF0
aF0
aF0
aF0
aF0
aF0
aF0
aF0
aF0
aF0
aF0
aF0
aF0
aF0
aF0
aF0
aF0
aF0
aF0
aF0
aF0
aF0
aF0
aF0
aF0
aF0
aF0
aF0
aF0
aF0
aF0
aF0
aF0
aF0
aF0
aF0
aF0
aF0
aF0
aF0
aF0
aF0
aF0
aF0
aF0
aF0
aF0
aF0
aF0
aF0
aF0
aF0
aF0
aF0
aF0
aF0
aF0
aF0
aF0
aF0
aF0
aF0
aF0
aF0
aF0
aF0
aF0
aF0
aF0
aF0
aF0
aF0
aF0
aF0
aF0
aF0
aF0
aF0
aF0
aF0
aF0
aF0
aF0
aF0
aF0
aF0
aF0
aF0
aF0
aF0
aF0
aF0
aF0
aF0
aF0
aF0
aF0
aF0
aF0
aF0
aF0
aF0
aF0
aF0
aF0
aF0
aF0
aF0
aF0
aF0
aF0
aF0
aF0
aF0
aF0
aF0
aF0
aF0
aF0
aF0
aF0
aF0
aF0
aF0
aF0
aF0
aF0
aF0
aF0
aF0
aF0
aF0
aF0
aF0
aF0
aF0
aF0
aF0
aF0
aF0
aF0
aF0
aF0
aF0
aF0
aF0
aF0
aF0
aF0
aF0
aF0
aF0
aF0
aF0
aF0
aF0
aF0
aF0
aF0
aF0
aF0
aF0
aF0
aF0
aF0
aF0
aF0
aF0
aF0
aF0
aF0
aF0
aF0
aF0
aF0
aF0
aF0
aF0
aF0
aF0
aF0
aF0
aF0
aF0
aF0
aF0
aF0
aF0
aF0
aF0
aF0
aF0
aF0
aF0
aF0
aF0
aF0
aF0
aF0
aF0
aF0
aF0
aF0
aF0
aF0
aF0
aF0
aF0
aF0
aF0
aF0
aF0
aF0
aF0
aF0
aF0
aF0
aF0
aF0
aF0
aF0
aF0
aF0
aF0
aF0
aF0
aF0
aF0
aF0
aF0
aF0
aF0
aF0
aF0
aF0
aF0
aF0
aF0
aF0
aF0
aF0
aF0
aF0
aF0
aF0
aF0
aF0
aF0
aF0
aF0
aF0
aF0
aF0
aF0
aF0
aF0
aF0
aF0
aF0
aF0
aF0
aF0
aF0
aF0
aF0
aF0
aF0
aF0
aF0
aF0
aF0
aF0
aF0
aF0
aF0
aF0
aF0
aF0
aF0
aF0
aF0
aF0
aF0
aF0
aF0
aF0
aF0
aF0
aF0
aF0
aF0
aF0
aF0
aF0
aF0
aF0
aF0
aF0
aF0
aF0
aF0
aF0
aF0
aF0
aF0
aF0
aF0
aF0
aF0
aF0
aF0
aF0
aF0
aF0
aF0
aF0
aF0
aF0
aF0
aF0
aF0
aF0
aF0
aF0
aF0
aF0
aF0
aF0
aF0
aF0
aF0
aF0
aF0
aF0
aF0
aF0
aF0
aF0
aF0
aF0
aF0
aF0
aF0
aF0
aF0
aF0
aF0
aF0
aF0
aF0
aF0
aF0
aF0
aF0
aF0
aF0
aF0
aF0
aF0
aF0
aF0
aF0
aF0
aF0
aF0
aF0
aF0
aF0
aF0
aF0
aF0
aF0
aF0
aF0
aF0
aF0
aF0
aF0
aF0
aF0
aF0
aF0
aF0
aF0
aF0
aF0
aF0
aF0
aF0
aF0
aF0
aF0
aF0
aF0
aF0
aF0
aF0
aF0
aF0
aF0
aF0
aF0
aF0
aF0
aF0
aF0
aF0
aF0
aF0
aF0
aF0
aF0
aF0
aF0
aF0
aF0
aF0
aF0
aF0
aF0
aF0
aF0
aF0
aF0
aF0
aF0
aF0
aF0
aF0
aF0
aF0
aF0
aF0
aF0
aF0
aF0
aF0
aF0
aF0
aF0
aF0
aF0
aF0
aF0
aF0
aF0
aF0
aF0
aF0
aF0
aF0
aF0
aF0
aF0
aF0
aF0
aF0
aF0
aF0
aF0
aF0
aF0
aF0
aF0
aF0
aF0
aF0
aF0
aF0
aF0
aF0
aF0
aF0
aF0
aF0
aF0
aF0
aF0
aF0
aF0
aF0
aF0
aF0
aF0
aF0
aF0
aF0
aF0
aF0
aF0
aF0
aF0
aF0
aF0
aF0
aF0
aF0
aF0
aF0
aF0
aF0
aF0
aF0
aF0
aF0
aF0
aF0
aF0
aF0
aF0
aF0
aF0
aF0
aF0
aF0
aF0
aF0
aF0
aF0
aF0
aF0
aF0
aF0
aF0
aF0
aF0
aF0
aF0
aF0
aF0
aF0
aF0
aF0
aF0
aF0
aF0
aF0
aF0
aF0
aF0
aF0
aF0
aF0
aF0
aF0
aF0
aF0
aF0
aF0
aF0
aF0
aF0
aF0
aF0
aF0
aF0
aF0
aF0
aF0
aF0
aF0
aF0
aF0
aF0
aF0
aF0
aF0
aF0
aF0
aF0
aF0
aF0
aF0
aF0
aF0
aF0
aF0
aF0
aF0
aF0
aF0
aF0
aF0
aF0
aF0
aF0
aF0
aF0
aF0
aF0
aF0
aF0
aF0
aF0
aF0
aF0
aF0
aF0
aF0
aF0
aF0
aF0
aF0
aF0
aF0
aF0
aF0
aF0
aF0
aF0
aF0
aF0
aF0
aF0
aF0
aF0
aF0
aF0
aF0
aF0
aF0
aF0
aF0
aF0
aF0
aF0
aF0
aF0
aF0
aF0
aF0
aF0
aF0
aF0
aF0
aF0
aF0
aF0
aF0
aF0
aF0
aF0
aF0
aF0
aF0
aF0
aF0
aF0
aF0
aF0
aF0
aF0
aF0
aF0
aF0
aF0
aF0
aF0
aF0
aF0
aF0
aF0
aF0
aF0
aF0
aF0
aF0
aF0
aF0
aF0
aF0
aF0
aF0
aF0
aF0
aF0
aF0
aF0
aF0
aF0
aF0
aF0
aF0
aF0
aF0
aF0
aF0
aF0
aF0
aF0
aF0
aF0
aF0
aF0
aF0
aF0
aF0
aF0
aF0
aF0
aF0
aF0
aF0
aF0
aF0
aF0
aF0
aF0
aF0
aF0
aF0
aF0
aF0
aF0
aF0
aF0
aF0
aF0
aF0
aF0
aF0
aF0
aF0
aF0
aF0
aF0
aF0
aF0
aF0
aF0
aF0
aF0
aF0
aF0
aF0
aF0
aF0
aF0
aF0
aF0
aF0
aF0
aF0
aF0
aF0
aF0
aF0
aF0
aF0
aF0
aF0
aF0
aF0
aF0
aF0
aF0
aF0
aF0
aF0
aF0
aF0
aF0
aF0
aF0
aF0
aF0
aF0
aF0
aF0
aF0
aF0
aF0
aF0
aF0
aF0
aF0
aF0
aF0
aF0
aF0
aF0
aF0
aF0
aF0
aF0
aF0
aF0
aF0
aF0
aF0
aF0
aF0
aF0
aF0
aF0
aF0
aF0
aF0
aF0
aF0
aF0
aF0
aF0
aF0
aF0
aF0
aF0
aF0
aF0
aF0
aF0
aF0
aF0
aF0
aF0
aF0
aF0
aF0
aF0
aF0
aF0
aF0
aF0
aF0
aF0
aF0
aF0
aF0
aF0
aF0
aF0
aF0
aF0
aF0
aF0
aF0
aF0
aF0
aF0
aF0
aF0
aF0
aF0
aF0
aF0
aF0
aF0
aF0
aF0
aF0
aF0
aF0
aF0
aF0
aF0
aF0
aF0
aF0
aF0
aF0
aF0
aF0
aF0
aF0
aF0
aF0
aF0
aF0
aF0
aF0
aF0
aF0
aF0
aF0
aF0
aF0
aF0
aF0
aF0
aF0
aF0
aF0
aF0
aF0
aF0
aF0
aF0
aF0
aF0
aF0
aF0
aF0
aF0
aF0
aF0
aF0
aF0
aF0
aF0
aF0
aF0
aF0
aF0
aF0
aF0
aF0
aF0
aF0
aF0
aF0
aF0
aF0
aF0
aF0
aF0
aF0
aF0
aF0
aF0
aF0
aF0
aF0
aF0
aF0
aF0
aF0
aF0
aF0
aF0
aF0
aF0
aF0
aF0
aF0
aF0
aF0
aF0
aF0
aF0
aF0
aF0
aF0
aF0
aF0
aF0
aF0
aF0
aF0
aF0
aF0
aF0
aF0
aF0
aF0
aF0
aF0
aF0
aF0
aF0
aF0
aF0
aF0
aF0
aF0
aF0
aF0
aF0
aF0
aF0
aF0
aF0
aF0
aF0
aF0
aF0
aF0
aF0
aF0
aF0
aF0
aF0
aF0
aF0
aF0
aF0
aF0
aF0
aF0
aF0
aF0
aF0
aF0
aF0
aF0
aF0
aF0
aF0
aF0
aF0
aF0
aF0
aF0
aF0
aF0
aF0
aF0
aF0
aF0
aF0
aF0
aF0
aF0
aF0
aF0
aF0
aF0
aF0
aF0
aF0
aF0
aF0
aF0
aF0
aF0
aF0
aF0
aF0
aF0
aF0
aF0
aF0
aF0
aF0
aF0
aF0
aF0
aF0
aF0
aF0
aF0
aF0
aF0
aF0
aF0
aF0
aF0
aF0
aF0
aF0
aF0
aF0
aF0
aF0
aF0
aF0
aF0
aF0
aF0
aF0
aF0
aF0
aF0
aF0
aF0
aF0
aF0
aF0
aF0
aF0
aF0
aF0
aF0
aF0
aF0
aF0
aF0
aF0
aF0
aF0
aF0
aF0
aF0
aF0
aF0
aF0
aF0
aF0
aF0
aF0
aF0
aF0
aF0
aF0
aF0
aF0
aF0
aF0
aF0
aF0
aF0
aF0
aF0
aF0
aF0
aF0
aF0
aF0
aF0
aF0
aF0
aF0
aF0
aF0
aF0
aF0
aF0
aF0
aF0
aF0
aF0
aF0
aF0
aF0
aF0
aF0
aF0
aF0
aF0
aF0
aF0
aF0
aF0
aF0
aF0
aF0
aF0
aF0
aF0
aF0
aF0
aF0
aF0
aF0
aF0
aF0
aF0
aF0
aF0
aF0
aF0
aF0
aF0
aF0
aF0
aF0
aF0
aF0
aF0
aF0
aF0
aF0
aF0
aF0
aF0
aF0
aF0
aF0
aF0
aF0
aF0
aF0
aF0
aF0
aF0
aF0
aF0
aF0
aF0
aF0
aF0
aF0
aF0
aF0
aF0
aF0
aF0
aF0
aF0
aF0
aF0
aF0
aF0
aF0
aF0
aF0
aF0
aF9.028278222326738e-199
aF2.4885601590347852e-207
aF9.8662512497189071e-208
aF1.7813847724953199e-202
aF6.0466996990394885e-201
aF1.8109782210304303e-207
aF4.4482579985509823e-186
aF2.3000900185760104e-200
aF2.8439516250802889e-202
aF8.1611651010543311e-202
aF9.4058647747735744e-200
aF1.3345892913524548e-200
aF7.3963750899711195e-202
aF3.4445790218808921e-202
aF6.2800230127995231e-202
aF1.4375683189146573e-201
aF2.9829868164704711e-199
aF8.0098700422951373e-202
aF1.6884663599338083e-203
aF7.9067752646082875e-204
aF1.7340429715141201e-202
aF5.3234061076427324e-198
aF7.044687627914365e-199
aF4.0705653418232182e-201
aF1.43251389680501e-201
aF2.810962839555492e-201
aF1.4285591008795226e-199
aF8.3663032594624769e-203
aF6.7898444368134477e-200
aF1.6797947464288982e-202
aF1.2901701810186271e-200
aF1.6482528374622062e-199
aF1.0938772613023639e-199
aF1.6203763491093809e-202
aF1.7455697547603577e-198
aF1.5041921614935385e-200
aF3.9466451875433735e-202
aF3.0922163507636885e-200
aF6.0716727884323832e-201
aF2.1543799033311028e-201
aF2.5256194906097181e-201
aF1.3964673788207511e-200
aF1.0589978904083096e-200
aF2.7924331737680251e-202
aF1.8201417725650961e-199
aF1.1810371051626173e-201
aF1.037468367223705e-200
aF4.5505328795215738e-199
aF2.1496727315954009e-201
aF4.2463897811641535e-201
aF1.6279001072115271e-200
aF1.8694127422904365e-201
aF1.8335591411805909e-200
aF2.5609425703149248e-202
aF1.3163104175017266e-208
aF6.0051454042907085e-202
aF9.5154319135970147e-205
aF7.1050127345436291e-207
aF5.6724023793014107e-207
aF9.0881017450825255e-207
aF4.6754754932358115e-201
aF2.852931905584261e-205
aF2.9476347992341026e-206
aF1.6446260002232227e-208
aF1.6124764031021267e-207
aF4.9911743123706316e-210
aF2.9883499055791811e-207
aF3.9269290829782608e-201
aF2.3264714011521272e-208
aF2.4575005422541285e-205
aF1.3365859810026397e-199
aF6.0943019378011473e-203
aF1.784645067672917e-206
aF9.6622416550260829e-200
aF1.6238970820674367e-208
aF4.7127277416851585e-206
aF8.6741214242774842e-204
aF4.0490840478572172e-203
aF4.2082983443111058e-203
aF3.420126808048915e-207
aF3.314321548276547e-204
aF2.0733065868586117e-206
aF1.5230690776549503e-203
aF1.844266027710569e-203
aF9.0549586260581968e-208
aF1.0415485591175615e-208
aF1.1095228198173408e-200
aF2.2009596826583674e-207
aF4.4124429808160187e-205
aF1.8085571142565343e-206
aF1.9071762204569805e-205
aF7.122558524271583e-208
aF5.6938643815799715e-206
aF3.3471367086143712e-205
aF2.1031894107053431e-208
aF7.7437990891033234e-210
aF2.0136277517586355e-210
aF2.2553622412431204e-208
aF4.0683757352986185e-209
aF1.6940898868229769e-204
aF5.3040276076078439e-208
aF4.2691829098761696e-209
aF8.7101872339491846e-190
aF1.4978741338564793e-185
aF3.4247953964097342e-186
aF4.1992216053699263e-191
aF9.0222495700013011e-192
aF2.7704792334597102e-189
aF3.2097702481878702e-64
aF2.5316963721537595e-75
aF1.0096690456206451e-72
aF1.90386769606078e-73
aF9.5030755877907986e-74
aF4.4008872600386206e-74
aF5.53393629269075e-13
aF3.077564314151944e-15
aF2.2164798452049749e-17
aF1.591535276384485e-17
aF1.3430101129206264e-17
aF5.0514126064064084e-19
aF1.3789891099988408e-21
aF1.9387856503297172e-16
aF2.8309490277447841e-24
aF1.1930172430637277e-16
aF7.8635040096772229e-19
aF7.8169531678811189e-23
aF2.3328376580077898e-24
aF1.2989093154295822e-22
aF1.6270609188078265e-18
aF3.6630284446236048e-22
aF4.462668889069709e-20
aF3.3556346969323091e-20
aF3.0364440823705959e-20
aF1.8862254478956179e-19
aF7.6623302930382845e-21
aF1.0596827453124793e-23
aF9.9363765335684025e-22
aF1.8407549405962342e-19
aF6.8802259924764144e-21
aF1.4463942659190987e-21
aF2.1824107251834595e-17
aF2.8413858306505828e-22
aF7.7393137717731983e-22
aF4.4312909594462691e-22
aF1.450927812467828e-14
aF1.4788043008206536e-22
aF1.0437478114858813e-19
aF1.9094526395750658e-23
aF2.2666285867088991e-23
aF1.2370505196487271e-21
aF9.1992797398073246e-16
aF9.3887626938567711e-12
aF1.4012131339313359e-19
aF3.0019216076942075e-23
aF9.943803833233343e-23
aF5.1032686622488969e-22
aF5.906082589279111e-24
aF1.1815483348798142e-18
aF6.9563316994327443e-24
aF3.0164000191189791e-21
aF7.618026932829105e-19
aF1.4058527847609929e-17
aF3.471413759111882e-95
aF4.6023792895203406e-96
aF6.426774879166265e-97
aF9.1762551108460101e-97
aF4.6806263737826658e-96
aF3.1413908620518217e-96
aF4.1799009803973623e-97
aF2.6981932806167775e-94
aF3.3668721048669254e-94
aF1.9456052618402527e-95
aF3.7411501329175616e-95
aF1.3768477326928452e-96
aF1.4604000310015563e-86
aF9.0433932594370752e-81
aF8.2928115761544565e-81
aF1.875258123585181e-81
aF1.0097269206829693e-84
aF1.9479009726457795e-82
aF1.4290413930655579e-84
aF1.0607920173403598e-82
aF2.5693633918830965e-89
aF1.3592440679025663e-86
aF4.3332602497127854e-88
aF1.0523326123973051e-89
aF3.9683965651335534e-86
aF1.5758221969634633e-86
aF6.4697278212545468e-84
aF1.3798379442462626e-84
aF1.3535433742636319e-89
aF4.0851305658414761e-89
aF2.3724627840124292e-83
aF4.907332638750299e-84
aF8.631544670094309e-89
aF2.536258856233651e-86
aF6.4113415292131444e-84
aF7.4459547266955225e-86
aF1.4903310840668911e-85
aF5.2634475430748549e-87
aF6.8559377579876901e-87
aF1.2934208303525031e-85
aF2.1012602419612028e-80
aF1.5557202586495227e-87
aF3.2993897821969019e-86
aF1.7799571876246564e-85
aF2.258207765140727e-83
aF5.9529228063868353e-81
aF1.137794787762715e-81
aF1.0676116288508952e-81
aF2.1184780730026541e-19
aF3.4880431936863704e-14
aF9.010568453255531e-16
aF8.8080732560268575e-14
aF1.7044205854478475e-15
aF1.5173780298597366e-15
aF5.3014232298032552e-17
aF1.8228619004943336e-15
aF1.078395682130639e-19
aF1.791319991527642e-20
aF8.4916027693943812e-18
aF1.9829346770393652e-16
aF1.4326682303045415e-13
aF8.5094186427465166e-12
aF3.6641570083389272e-16
aF1.5388303862945753e-19
aF1.3441965516982728e-18
aF5.9071436320883884e-21
aF6.9433580396284014e-18
aF3.7615703840742852e-18
aF5.319817853778632e-19
aF1.5773848236462166e-19
aF3.3189226157313213e-12
aF7.2951033767474811e-16
aF2.1810217236876788e-15
aF1.7262780673189557e-14
aF2.348097382773939e-18
aF5.1890298587696483e-19
aF1.3378495865300516e-16
aF1.3586460255918827e-17
aF2.3128611156622184e-09
aF8.1911829667131519e-18
aF1.5205129290689644e-17
aF2.7075497490258573e-18
aF7.1853626127370666e-18
aF2.9014987287179907e-17
aF1.4584033413513714e-16
aF9.3039757275518099e-19
aF1.858484001354882e-17
aF7.3998186561794099e-19
aF1.0015375993640943e-10
aF1.1248693571769759e-18
aF9.7049727427087889e-15
aF7.5843243548689761e-16
aF5.4935780825633376e-20
aF4.079159788578362e-17
aF7.0653104417892229e-15
aF2.3139896793775404e-14
aF6.1414990511265366e-11
aF3.2737221920561173e-15
aF2.1315578370879246e-16
aF5.060894470783858e-12
aF4.6566757438241661e-14
aF3.9963888036110281e-17
aF2.2666768159275026e-15
aF1.0009684945845729e-15
aF3.8141112948209427e-21
aF9.4722185337282751e-11
aF7.0998136247781709e-17
aF4.6716557391224145e-12
aF1.6560949084071359e-13
aF1.4976136960760206e-13
aF5.6859162063541127e-15
aF7.8295409939366354e-20
aF1.7132272407648476e-19
aF2.5039645714567444e-14
aF1.1165257023585696e-17
aF3.2728347744338123e-20
aF3.637785271606531e-22
aF2.205444999988493e-19
aF5.2396030173972836e-21
aF5.943903942507979e-16
aF1.2781707514300751e-17
aF1.5506176073212719e-14
aF7.1638137978650218e-11
aF2.8171361795367405e-21
aF9.248126292408952e-18
aF1.3149503535371076e-19
aF1.2863600727489502e-17
aF3.9207557429970119e-09
aF3.5320378868964871e-11
aF4.9174028995947115e-11
aF1.5854198114655606e-10
aF6.3263809377212111e-12
aF5.4291438465090555e-14
aF1.3265060743145074e-11
aF4.1663485699697778e-17
aF1.9147867911526134e-13
aF1.1636649406216347e-16
aF4.9952448584207673e-17
aF1.575957238775553e-16
aF1.462502824932669e-15
aF5.0695950218199297e-11
aF4.6916998023740313e-15
aF3.4097092968305583e-17
aF1.5847831857799943e-16
aF5.5427333021640285e-12
aF2.1160280286975962e-11
aF6.7513478745241302e-14
aF1.1954479956813441e-12
aF4.430731500510468e-13
aF2.8850332734867538e-13
aF1.0866139409806762e-11
aF6.2599017827981408e-13
aF1.9331717692842692e-14
aF1.9301912035745726e-17
aF7.2766026484911772e-12
aF1.5342003813086389e-15
aF2.6119305002225499e-14
aF7.7128166390724331e-14
aF6.0017211297698611e-13
aF7.5712252990962652e-16
aF5.007987017975813e-16
aF6.3232749760431455e-11
aF2.0838591398890586e-12
aF1.0566925337590621e-14
aF2.6532532947220323e-15
aF9.3299326930042177e-18
aF1.1228919592142322e-15
aF6.3095103570537048e-12
aF1.0746820322981691e-12
aF1.6998870388991183e-14
aF1.3522894145799408e-12
aF8.451427830297662e-17
aF1.2379861664896352e-14
aF7.8428619041149228e-15
aF8.6605497221624583e-14
aF3.0659507183122199e-13
aF1.2059426736494669e-09
aF2.0749849636660137e-11
aF2.203940248368064e-13
aF6.4418899162766046e-16
aF4.7644294640281159e-14
aF4.1846467355079469e-14
aF6.1922554807848651e-18
aF7.6858757975605159e-17
aF1.7904615114364996e-14
aF1.785484256076618e-15
aF3.0449902999071366e-15
aF1.0583612647227433e-15
aF1.3202845051146553e-10
aF1.2829261523843806e-14
aF4.7655773194308788e-15
aF4.0975061833351348e-18
aF1.3001632751132732e-13
aF7.4446332461057864e-15
aF1.7778929770684263e-18
aF1.8767821668930517e-15
aF1.0846268971742117e-13
aF9.459949020515543e-12
aF4.2987377750363974e-12
aF3.3732287158788675e-13
aF1.8394238141627773e-17
aF7.6641051282828933e-14
aF2.9865461328034099e-13
aF5.0761349038625649e-15
aF3.3443297680916475e-11
aF1.4307583532478426e-09
aF3.9107530030586449e-16
aF2.8819080201212468e-13
aF8.5441340342973185e-19
aF4.0700444662622995e-13
aF0.12429151926309134
aF2.8035644774217143e-14
aF1.0178004918771961e-13
aF3.0683911167735569e-15
aF1.3574885243453987e-14
aF1.7159859520689681e-13
aF1.8984274402023042e-05
aF5.572606480167039e-12
aF5.842005249442495e-13
aF5.8769810787737566e-11
aF5.6716596493349168e-12
aF3.8947891317008852e-10
aF6.6350286450961982e-12
aF1.2993530242407343e-15
aF1.5948438007806854e-13
aF1.117519224261802e-11
aF1.0413749339305889e-09
aF8.8510840731774628e-11
aF1.008386148405792e-06
aF3.3626665170047002e-08
aF2.9871441751140934e-13
aF4.6236097915496039e-15
aF0.00021528944433981149
aF1.5925287982877171e-13
aF5.165551875153462e-07
aF0.0008884159671295746
aF9.1361862760302178e-12
aF2.4615517966168228e-12
aF1.5062274345186065e-13
aF2.9954203090264549e-12
aF6.2976845526521262e-11
aF3.795774545907891e-12
aF2.0155665663464962e-12
aF2.2289905045107244e-14
aF1.0344878015140086e-12
aF1.3600543187751049e-14
aF3.7485388492076183e-14
aF1.3563310230989145e-11
aF4.9818178439615523e-13
aF8.1180481796227977e-12
aF2.907951798167139e-14
aF1.8054029233598653e-12
aF8.702480204816344e-14
aF5.013388690459405e-12
aF5.9338240358198466e-14
aF3.4381645358066258e-13
aF6.9343970508118708e-13
aF4.8329342461325335e-09
aF3.634042684242899e-10
aF2.5845363040557587e-12
aF2.657034465460547e-17
aF1.9170825019581402e-19
aF1.1916378874116675e-11
aF4.1110296562315582e-18
aF1.7760216833866101e-18
aF8.6219567014359341e-11
aF8.0314670863857876e-08
aF2.1263780190099082e-05
aF5.7059602696057297e-12
aF3.8404348023347362e-13
aF1.2301344497009848e-12
aF1.8298840747230042e-08
aF3.2166091513858469e-12
aF3.2335858363342803e-13
aF4.3166886902006215e-14
aF7.3328957924451861e-15
aF2.2521598211278477e-13
aF3.0585330644910011e-13
aF5.6906619614646986e-07
aF2.5134946650527969e-13
aF1.5148508188049127e-09
aF1.7961622050754338e-16
aF1.2188295208603232e-12
aF5.0196391971904194e-09
aF6.5925387035065105e-16
aF6.4636605855542255e-12
aF9.1351155873772212e-14
aF8.8613568967400092e-11
aF5.6999316172802914e-12
aF1.4058527847609928e-13
aF3.5573196432884436e-09
aF1.1773138094864268e-15
aF1.3126546427315809e-10
aF4.7317782830335428e-16
aF6.9926868844160667e-14
aF9.2304261691814668e-16
aF5.643995369543947e-09
aF8.2512186980307948e-09
aF1.9016298603175774e-09
aF1.0903372366568667e-12
aF3.1357866268500946e-13
aF1.8031072125543385e-13
aF1.823141629962234e-14
aF2.0277396211220207e-15
aF6.3823750605198797e-11
aF9.3305114436274593e-14
aF1.7641187122352654e-15
aF2.3131311992863981e-13
aF1.2611747747942003e-15
aF1.1371774537645903e-11
aF6.0550529997016154e-13
aF1.4737305870235649e-07
aF3.4610444771121279e-11
aF2.5001255256559058e-15
aF1.3433091340759683e-08
aF3.066037530905706e-12
aF5.5505078522029145e-16
aF8.2950301202102181e-13
aF4.5334404444484911e-13
aF5.7825482687480955e-13
aF2.0604583230226384e-06
aF1.5448879761511754e-15
aF3.0744487066301573e-05
aF9.4523191581324704e-07
aF8.3583936676115021e-08
aF5.7826833105601845e-07
aF2.1556724463896768e-06
aF2.3031863344103554e-15
aF2.9298092800382477e-12
aF6.9726042377895676e-13
aF6.9462517927446128e-15
aF4.7252673385220701e-07
aF7.9346613988048327e-13
aF4.7430735660304831e-12
aF1.3030184448546007e-14
aF1.6032260389739746e-08
aF2.1273329575382573e-12
aF1.2513167225116439e-10
aF7.3408921968896481e-14
aF2.7034792029757219e-09
aF7.4499095226210092e-11
aF6.6610820689858115e-09
aF8.9527512659936502e-10
aF5.5516267700745154e-15
aF3.1388540051532772e-13
aF1.094581407893975e-16
aF9.9209431836152809e-09
aF1.6084251487394324e-12
aF3.6098123248164983e-08
aF1.2509405346065365e-09
aF3.8061920571262478e-11
aF3.5889965940672259e-08
aF1.4564548809197898e-09
aF4.6769995365436829e-14
aF6.0481465755975943e-07
aF1.8113833464666999e-07
aF2.5535345623374262e-07
aF5.5286793078629683e-07
aF2.8067958350681488e-10
aF2.0455747861615967e-06
aF0.03490753675771887
aF7.3612835105152109e-08
aF1.1377658502315529e-09
aF4.6544186163935217e-11
aF1.8987457530450879e-08
aF1.9431069883165909e-06
aF5.1126154848142551e-06
aF1.0028880174849924e-09
aF4.3445265951785644e-06
aF3.6235769438059387e-09
aF0.067242237619815196
aF3.284120411587033e-08
aF2.8160654908837425e-06
aF0.00033418507862554279
aF1.6551592615662282e-08
aF9.1341606488488707e-09
aF1.0142797589191402e-10
aF0.00033183920943266826
aF0.010809711224040661
aF8.6446051424921395e-09
aF6.5020317518751744e-07
aF7.9024828641525751e-11
aF1.7558908075415075e-06
aF2.1379626773184697e-08
aF0.00019991300486464219
aF6.5965417286506018e-05
aF1.349636807556748e-10
aF4.6248058761709707e-12
aF2.5022861946493427e-11
aF1.0051837282905193e-09
aF0.13733366455785101
aF1.6409027045470324e-08
aF1.1838536915290618e-07
aF3.5561235586670772e-06
aF7.9571169229866249e-08
aF8.838486601278227e-07
aF8.6437177248698351e-07
aF1.6906559664584074e-07
aF1.5288276463562087e-08
aF2.7137037973196646e-07
aF0.01883514965810101
aF2.3714306787343141e-09
aF8.0758283216572905e-16
aF3.2533887534928794e-06
aF0.00010134598622028807
aF3.6765326258325862e-08
aF4.3632202403092828e-06
aF0.11563533910813435
aF8.7564004712150618e-11
aF6.5921914531325657e-07
aF4.1022615842894409e-11
aF7.1901469512225345e-11
aF3.1440916982936178e-11
aF1.0124374027684863e-09
aF0.00012448443613750535
aF4.2550999780439466e-12
aF7.363309137696557e-07
aF2.639787696887934e-06
aF8.5924018362757059e-10
aF1.5084073951994848e-11
aF2.8158822198530493e-09
aF4.2115007644263778e-06
aF1.1607518958179832e-08
aF1.5168860918299808e-08
aF5.4359827497070318e-09
aF7.4391736985598699e-09
aF6.2110745218839518e-10
aF1.4113123323069096e-08
aF1.9343485622181947e-11
aF1.1452027957402134e-09
aF1.2148747249348359e-07
aF1.5518426294738009e-08
aF1.234774100530642e-07
aF3.0914446832660322e-10
aF1.0163632611628115e-06
aF6.2190709263284138e-10
aF4.293741227989074e-10
aF1.5371809470183354e-09
aF1.6644192715381009e-07
aF9.4725754299459412e-11
aF4.5059497898444941e-11
aF1.4269964741967693e-10
aF6.5135778268088535e-12
aF4.2074591559074046e-10
aF8.3372692698631681e-12
aF5.7184998664426403e-11
aF3.705556969588175e-09
aF2.8142520722642504e-10
aF1.1434279604956045e-09
aF4.7063711306732171e-12
aF9.5507935766771053e-18
aF1.5724654433486593e-12
aF6.589664242077742e-17
aF1.1097543200666376e-16
aF2.6667864134621755e-18
aF5.8511495092897192e-16
aF2.6910553562634591e-18
aF1.7000027890237666e-10
aF9.5147470586928472e-15
aF1.0050486864784295e-08
aF5.2039519790055729e-10
aF6.1918021261299925e-11
aF3.1953690035128635e-13
aF1.0238870192649582e-09
aF8.6208377835643322e-12
aF1.6110198807003009e-11
aF0.00097786669887349421
aF4.5403082851776309e-12
aF8.6669738540804452e-13
aF2.4986304198791967e-12
aF1.4249226177968187e-09
aF2.8140012803275125e-13
aF6.8630563906535671e-12
aF5.9832204015135555e-14
aF1.2470629054308146e-13
aF9.5143612249440171e-14
aF3.4440292087888122e-13
aF1.5834713510339792e-09
aF2.2186115766672498e-10
aF2.8595007251580586e-12
aF7.5145366755497051e-09
aF1.0299735466527205e-12
aF1.0966070350753222e-14
aF5.3755033095782375e-13
aF1.112001801653561e-09
aF4.7106538852852075e-12
aF8.0383059895837644e-14
aF1.0779230357883247e-12
aF1.4268807240721207e-12
aF1.8058466321710174e-12
aF1.0855432523276783e-11
aF5.9307759492041052e-08
aF1.1444600657737195e-12
aF1.9527721237247335e-11
aF1.0602229125608385e-09
aF3.1575476502839953e-09
aF2.1750316547371234e-10
aF1.444802701705183e-09
aF7.854552666704412e-10
aF4.1695895734599329e-07
aF6.0049524874162957e-06
aF2.0878525191894288e-07
aF4.5056604145328728e-10
aF0.0096186135038773529
aF5.9535112028537978e-07
aF3.4646037934450671e-08
aF1.7987955204111852e-05
aF1.9597074853599174e-07
aF1.2552425809059691e-07
aF2.1867320631703334e-07
aF0.0094469367773363181
aF0.019075813458932497
aF4.0456694191800887e-06
aF1.8736279759963826e-08
aF7.5914429875348526e-05
aF4.952851375268286e-09
aF7.6728732002250101e-07
aF3.3006630335680348e-05
aF7.7492875741804026e-11
aF1.746746547694283e-07
aF2.0118143331391437e-07
aF1.8773512716725733e-05
aF0.00021421779110244161
aF3.4083106494910567e-07
aF6.3919630291782572e-10
aF2.4183866459666861e-09
aF2.4824446941158608e-08
aF0.00019814878004812599
aF0.17346024304499208
aF3.3764504276815816e-06
aF8.1700778606522588e-09
aF4.295622167514611e-09
aF6.5596560222626419e-10
aF1.2063960283043398e-06
aF4.7447905262127684e-10
aF4.6430943958654197e-09
aF7.5951662832110446e-08
aF2.8309779652759464e-10
aF3.8244130559146516e-08
aF9.2562770303529448e-06
aF1.0467476688830193e-05
aF3.3186911154820251e-05
aF1.0151093014791206e-07
aF8.372814203973951e-08
aF6.9775043263996835e-08
aF2.0015897387952007e-09
aF1.2109295748530693e-10
aF0.20612492822077355
aF1.5040667655251694e-05
aF0.0010804213093119862
aF6.1895932279179517e-05
aF0.019346861667484193
aF6.1646490760562192e-05
aF0.0023283234031465021
aF9.3561018670184782e-09
aF2.9903948244479702e-10
aF1.1661535683015757e-08
aF9.5085930103990391e-10
aF3.1529272911417799e-07
aF0.00064871096316392507
aF4.4442742650943325e-06
aF0.0015026391806545057
aF1.5668226247720492e-06
aF5.1672688353357471e-07
aF2.5116619547458635e-05
aF0.0016118011940416776
aF9.1157081498111709e-07
aF2.036565568126462e-09
aF9.7084452464482406e-05
aF2.6111106035062901e-08
aF9.7454852863357324e-07
aF3.3685022524557239e-05
aF0.00077695052626189918
aF6.495134973614873e-08
aF0.00062961990927191383
aF0.00095504173887719966
aF7.8593948802522034e-05
aF5.5324218952265998e-07
aF5.6957260294180656e-05
aF2.5387281922261505e-08
aF2.272464322159923e-06
aF4.3474010566073333e-06
aF1.667380545560356e-07
aF1.3060761773140629e-05
aF1.1620155013453949e-08
aF2.6432505547836654e-09
aF1.9512191428857007e-07
aF1.0701967149680431e-06
aF9.696677317108984e-07
aF0.00016979578701549781
aF0.0013810147371801881
aF4.4998343249255701e-08
aF2.0770877575971264e-07
aF7.2153515408647253e-06
aF1.7865549447296159e-10
aF4.5470217924072376e-11
aF4.3068885129803898e-11
aF1.6165276574648211e-11
aF6.6132869133497377e-11
aF2.6304215826351333e-09
aF7.8219593607721643e-05
aF2.4025481705772953e-07
aF1.8112097212797271e-10
aF0.00015666297078976353
aF4.7426587947504946e-09
aF2.4794062533438399e-09
aF7.6561955364319183e-12
aF1.7832367744896947e-10
aF2.435382622602561e-11
aF6.6361089795929173e-08
aF3.0470159270884843e-11
aF1.1439102526816394e-10
aF1.6546190943178688e-11
aF2.5209026730302949e-08
aF6.7729449186147802e-09
aF1.2875850949014793e-10
aF1.3268919080633353e-09
aF9.3779207655147047e-10
aF7.2865860967421024e-12
aF2.0463368078155321e-08
aF1.2328449317865017e-10
aF1.2382658959575355e-13
aF1.3509389964590426e-09
aF8.8119219476714163e-07
aF4.1827175667638067e-10
aF5.047390289574876e-10
aF2.4385175218117891e-09
aF5.6703092312140183e-13
aF9.2346992779497353e-09
aF4.8849639271619937e-12
aF2.1302170648107472e-10
aF3.5745085367987328e-11
aF2.6215859897869715e-11
aF1.2800034617370085e-11
aF2.113452588424169e-11
aF4.891436288298584e-05
aF1.8138044532405956e-05
aF0.00014803862191908488
aF3.2864064765488387e-11
aF9.4504575102943749e-10
aF1.0223051008947634e-10
aF4.8542901441301649e-09
aF1.0352594690116646e-05
aF0.0034877248808435871
aF8.8435313775441542e-06
aF0.18936431017168368
aF0.00089077051758179766
aF0.0078270330745692524
aF0.00038832334109234853
aF0.00080834678298840864
aF1.1206927068459124e-07
aF1.7268954013170806e-08
aF3.8337984618548937e-07
aF7.8866636804506259e-08
aF1.4451113687042455e-06
aF4.0856610872461146e-07
aF0.00011199017476608149
aF0.0003638489418198142
aF1.5256831013032601e-06
aF5.0086525811925418e-08
aF2.1976897416370499e-05
aF8.7154635104644074e-07
aF3.3917101524477302e-06
aF3.2005777591220419e-07
aF0.16223923304470073
aF8.6367727173909301e-07
aF1.300462296268615e-06
aF3.4808473942707276e-07
aF5.0772731134216081e-08
aF0.0094977124986820888
aF0.00044291013529216698
aF0.0001318905149462595
aF0.00031167746688765929
aF2.6977495718056254e-05
aF0.00018389608136641837
aF7.9104503310658742e-05
aF4.9966820891351522e-06
aF4.7159687451753145e-06
aF2.4091459276822547e-05
aF2.4848754467334776e-08
aF7.8299943485915073e-07
aF6.1830244083441549e-06
aF1.516587070674639e-06
aF1.2793186068328385e-06
aF6.8520794204994101e-06
aF8.6861787289283598e-08
aF2.111996066022343e-07
aF1.5939370914709398e-07
aF5.5804581969556909e-06
aF4.4650417666250017e-09
aF7.824747009607446e-15
aF1.9428079671612494e-09
aF3.7144986667172646e-11
aF5.0858579143330319e-16
aF1.338486212215618e-11
aF9.698220652104297e-14
aF1.8787306273246332e-17
aF1.1060599619216091e-11
aF7.6820753351345585e-13
aF3.7880482250876089e-14
aF5.6921281297102453e-16
aF9.3665868991428799e-13
aF1.827945260135143e-20
aF1.1694331551666141e-15
aF2.1954711975812886e-17
aF1.1013238526547451e-15
aF1.0054731036021402e-16
aF2.1321848169297702e-16
aF6.2408415956060358e-17
aF4.9217049458941434e-17
aF1.7465922141947518e-17
aF1.9467917006178987e-18
aF2.3438821490679926e-17
aF1.1696164261973073e-16
aF1.0863245656690551e-16
aF6.8527160461849755e-10
aF5.4283721790113997e-14
aF2.1272461449447712e-16
aF1.4867814135776733e-15
aF3.2636519312117051e-19
aF2.4298169707757164e-15
aF1.7496692383416555e-15
aF8.7774187646824707e-19
aF5.920599584078766e-18
aF2.97016749016566e-16
aF6.9300950045124387e-15
aF2.2567319510514599e-14
aF4.0419847068787815e-14
aF1.5412804305996333e-19
aF1.3357275009114974e-16
aF1.0928162184930868e-16
aF5.6507763976795995e-17
aF5.4658655735537636e-13
aF1.2787784395844793e-17
aF9.9702334450280618e-15
aF3.9804152864095476e-18
aF9.3225343308704398e-15
aF2.7372300101544539e-14
aF3.5599336669367538e-11
aF6.7816936988694554e-10
aF1.5271878529236894e-06
aF4.6039997912654185e-07
aF8.2004526225287464e-09
aF2.035919296597175e-10
aF-0.0073017493630710435
aF6.6095057426112232e-10
aF4.930685226398117e-09
aF4.3600660494126139e-10
aF0.13277696798419192
aF7.9804984481656029e-07
aF1.0977548904780858e-07
aF0.0016698305898654141
aF0.0022483690045456122
aF2.6158949419917574e-07
aF1.7354126813224596e-06
aF5.6917037125865339e-08
aF0.00018136211822099022
aF0.0011566717039241268
aF3.6446434664919494e-08
aF1.3543246876050087e-06
aF3.9197622210937803e-08
aF0.015885064814561849
aF0.11844131504648625
aF2.2915534468831904e-05
aF5.8168778265500691e-06
aF9.4788259366769569e-08
aF-0.00021527786932734665
aF0.00027209864093287938
aF0.0042722502881793528
aF1.7597394991860672e-05
aF3.2720245235612736e-08
aF1.358318066905379e-08
aF5.4897486826062193e-07
aF4.854155102318076e-05
aF0.00023521775746677953
aF3.8326409606084092e-08
aF6.2691425010825723e-09
aF3.4940622001680878e-09
aF1.1431675227151456e-05
aF0.0001783931275237585
aF0.00025167453143866734
aF6.9953780748141417e-05
aF4.4285708315170309e-08
aF3.8484697901540799e-06
aF0.0019591480264241168
aF9.977853661567415e-09
aF8.6935385076872545e-12
aF2.3154944309979698e-10
aF1.6439700828502152e-07
aF8.4902716429609245e-07
aF1.3241235509154941e-10
aF7.3079805781146169e-07
aF3.9244211636108785e-09
aF0.20612492822077355
aF1.1448555453662681e-05
aF0.0010591715155952822
aF-0.00091595195719905952
aF6.5787451469859082e-05
aF0.036743430193079872
aF0.0041376618307444133
aF1.4043094497656806e-06
aF2.1160087370101544e-08
aF6.2984948035246647e-09
aF9.5006544810169019e-10
aF3.1571232331602849e-07
aF0.00059528552854807898
aF-1.5857091867771817e-07
aF7.7730549331082111e-06
aF1.447580704696745e-06
aF2.7188353861790772e-07
aF2.5202853390321703e-05
aF-4.2242815073563073e-09
aF2.3246386908451942e-07
aF7.9374972768587198e-10
aF9.7570602988005734e-05
aF2.4373117913467016e-06
aF3.1177971283109872e-05
aF1.7343034092945788e-10
aF-1.31938744164863e-09
aF4.5137243398833785e-08
aF0.0006296295551156346
aF0.00095491634290883066
aF7.8523051851174877e-05
aF3.7643773245970089e-09
aF5.692649005271163e-05
aF-8.2479873403843601e-09
aF2.7958670941325949e-07
aF3.1193983383686235e-06
aF4.6257608146993194e-05
aF3.6127928905261944e-06
aF1.742193709458112e-08
aF4.3634999697771832e-07
aF1.0670328782276534e-07
aF5.4007464825953127e-08
aF8.3761998951199162e-07
aF8.3023706072816725e-06
aF-2.804857020480288e-07
aF7.2931742080033406e-10
aF2.0728532322037386e-07
aF-1.4737209411798444e-07
aF-3.4609962478935249e-11
aF-1.1545496183055725e-10
aF1.1613595839723874e-07
aF-9.977853661567415e-09
aF-5.2037397704437167e-10
aF7.0950678696675851e-10
aF2.3173753705235063e-12
aF-2.7761413437237617e-11
aF-2.0087180173047984e-06
aF1.7426181265818231e-13
aF-3.0564302705598882e-05
aF-9.4523191581324704e-07
aF-8.1479985243755738e-08
aF-5.7827508314662296e-07
aF-2.1554602378278214e-06
aF7.9586216746070546e-09
aF7.4226117848914256e-12
aF2.6938815884736241e-08
aF2.9491974259168559e-12
aF-4.7211389174096101e-07
aF1.1008126229375479e-12
aF4.387055120143135e-09
aF-3.2940749223067956e-12
aF-1.5884003771752573e-08
aF-4.9303958510864946e-12
aF-1.0080967730941708e-10
aF-6.4718113234982182e-14
aF-2.7034406196008388e-09
aF-7.0628893350153271e-10
aF-5.2652609616943478e-09
aF-8.0548003823461621e-10
aF2.6472921633026389e-09
aF-1.6633389370413825e-12
aF1.1938274939362667e-13
aF-9.1911772310819348e-09
aF1.5713851088519408e-13
aF-3.4196252241754385e-08
aF-1.2505739925451499e-09
aF-3.7997389876770985e-11
aF-2.9196329149129078e-08
aF-1.4564162975449069e-09
aF-1.0615443931505746e-14
aF-6.0480694088478287e-07
aF3.3747431133430172e-05
aF0.0035791771251595527
aF0.00029951984546208792
aF3.6087223444760592e-06
aF0.049017091118611314
aF2.7481394594025668e-07
aF0.0031276744722809851
aF7.5815849352522977e-06
aF0.18914149118173551
aF0.00086131789836500956
aF0.007804075966513984
aF-0.032537263580231041
aF0.0098533258191331671
aF0.061708320618811888
aF2.4306465133356972e-07
aF4.7762842059608573e-05
aF-1.8425394216845637e-06
aF-3.4496720273654219e-06
aF0.027439145798529001
aF-0.00060766500437922655
aF0.0004161506356421986
aF-0.066604165057690831
aF2.5983009230451989e-05
aF2.4660853431655519e-05
aF-0.00033216716811917214
aF1.5898858371082451e-06
aF1.3543150417612882e-06
aF0.0085585642165034864
aF-0.00033118811498152094
aF-0.01078588599005053
aF-1.1505176556303195e-05
aF0.001231706722227459
aF5.3343734319531689e-05
aF0.00043635867823706696
aF2.3517338658566429e-05
aF0.00012083927179545249
aF-0.00016150904267504365
aF-0.0012065021325852676
aF7.9284012462300975e-05
aF0.0001319127003868171
aF0.0017772370596954186
aF-0.13693625579655813
aF0.00011446626284918541
aF7.4784708658780051e-07
aF3.680226983977615e-06
aF2.3443258578791446e-06
aF0.00024543077679825765
aF-4.5219908279520194e-05
aF4.83509491512597e-05
aF1.6705057989258631e-07
aF-0.0001250795846950726
aF-0.018832545280296421
aF1.027118376911393e-05
aF1.071720758275914e-06
aF7.0909298027114057e-06
aF6.2791548868646594e-05
aF1.2298257827019223e-05
aF0.0011444600657737195
aF-0.11563533910813435
aF-1.1340714920865245e-10
aF-6.8442566412419207e-07
aF9.3199395989095715e-07
aF-1.9934582925386497e-10
aF9.2669260418205992e-05
aF2.8440866668923788e-07
aF1.2368093735557097e-06
aF-4.2275610942213455e-06
aF-7.3520910214493819e-07
aF-2.5553865643318007e-06
aF2.0617701577686533e-09
aF7.3229991567877485e-12
aF1.9129830183768422e-06
aF-9.962999062237538e-10
aF0.066700334119586216
aF1.261599191917911e-08
aF-5.4212921297204049e-09
aF-1.1864870068648132e-08
aF5.0175364032593068e-08
aF-1.4160966707923771e-08
aF1.7690670300639849e-08
aF-1.1570382459855132e-09
aF-1.2335008491595093e-07
aF-3.5121674488318433e-05
aF2.7820735376119924e-06
aF-0.00012346101211873901
aF8.224760148704912e-05
aF2.8172326379739476e-09
aF-4.9786925905960439e-10
aF3.9700460044097941e-07
aF-1.661544810109332e-07
aF0.0004806851884711758
aF6.2627183691645853e-09
aF-1.0266553764127994e-08
aF0.00014618276158722202
aF2.8970134113878647e-08
aF1.3350330001636069e-08
aF-5.9568293730937186e-05
aF8.0346212772824553e-05
aF-9.4907771370469039e-09
aF-1.1690087380429031e-09
aF1.0442879787342407e-06
aF4.1881867601534447e-14
aF4.2519361413035567e-06
aF0.00012727594331027621
aF2.27558957552543e-07
aF0.00064093834229378421
aF0.26840814112533923
aF2.0259647858774119e-07
aF1.2486351779572891e-05
aF1.4979705922936863e-11
aF4.6570037025106694e-10
aF5.93304272247847e-08
aF1.588728335861761e-09
aF2.8631854374593663e-10
aF1.6789169746503146e-07
aF8.1009171611748341e-05
aF0.00016785986618075312
aF5.7752174275203621e-08
aF5.8530786780338596e-09
aF1.1072753382304175e-08
aF5.5126479155991628e-09
aF9.0052246558342636e-08
aF5.847262234270277e-08
aF4.1168750375263028e-08
aF3.0105739295116759e-08
aF1.2417866289155915e-08
aF1.6015090787916897e-08
aF4.5283570848076814e-11
aF3.9723706527464831e-08
aF0.00059528456396370686
aF1.3886349537195418e-07
aF3.7955719831897558e-05
aF9.4765881009337534e-10
aF6.6364176465919798e-06
aF9.9758280343860697e-08
aF7.0878045493458983e-10
aF1.3237570088541075e-08
aF2.148052229850323e-07
aF2.7786203255599816e-09
aF3.2697288127557466e-10
aF3.6187733136330293e-10
aF9.3267399187326652e-12
aF2.0744351505739337e-09
aF1.7366377034749885e-10
aF9.6112054958998545e-10
aF4.5925405289252256e-09
aF4.1984402920285492e-10
aF3.627801823355605e-09
aF4.7068051936406489e-11
aF-7.7372302695295267e-10
aF-4.1693484273669156e-07
aF-6.0040843614814325e-06
aF3.3629076630977178e-07
aF-4.3121647894956124e-10
aF-0.0096186135038773529
aF0.034905318213663113
aF-3.415950157717852e-08
aF-4.80866530333125e-08
aF-1.5014334501894178e-07
aF-1.2258420492452728e-07
aF1.5059477050507059e-06
aF-0.0094427890645364162
aF-0.019075813458932497
aF-3.6455791133328568e-07
aF-1.7270497348166118e-08
aF-7.3980438209348006e-05
aF3.9300253988126057e-08
aF2.104713454013214e-06
aF-2.8617964359635855e-05
aF1.5236864116530751e-07
aF-1.6552364283159936e-07
aF2.700170678579521e-06
aF0.00031229094254829588
aF0.010580525977236807
aF-2.9721448881284032e-07
aF-5.7354379680161915e-08
aF-2.3634149826024116e-09
aF-2.4767536463206474e-08
aF-0.00017484056328142435
aF-0.17215998331144158
aF-1.9482675147071659e-06
aF-9.0928571460368312e-09
aF-4.3540952721494999e-09
aF3.9083126045973082e-07
aF2.0426328038267828e-07
aF0.00011679284035461847
aF7.9364844632680455e-05
aF-7.5864753780186922e-08
aF-1.1548004102423107e-10
aF4.1457161102511984e-08
aF-6.6033227567862549e-06
aF-9.6236486342995588e-06
aF-3.3188068656066727e-05
aF-9.4818547316052565e-08
aF-7.995574901901059e-08
aF0.0021850633322066525
aF3.7012645691324631e-07
aF3.1829162192694389e-10
aF-0.20603908021165931
aF-1.4805694902215421e-05
aF-0.0010804213093119862
aF-6.1895835820742305e-05
aF-0.019346861667484193
aF-6.1646490760562192e-05
aF-0.00071689260950369925
aF-9.3514429245013803e-09
aF-3.6788090449506716e-10
aF-4.2847802391725428e-10
aF-9.5049565273163352e-10
aF-3.152879061923176e-07
aF-0.0005951090096079901
aF-4.3283215777277872e-06
aF-7.0438098561357815e-06
aF-8.7833123751958173e-11
aF-4.1333983678198635e-09
aF-2.5075914086957283e-05
aF-3.3659171663385761e-05
aF-2.5160604594825033e-07
aF-8.0624013071980746e-10
aF-9.7074806620761706e-05
aF-2.6201680507600282e-08
aF-9.6140510197974606e-07
aF-6.8513559822203568e-10
aF-5.8983659143025498e-11
aF-4.509103980741163e-08
aF-0.00062961701551879758
aF-0.00095503209303347911
aF-7.8523244768049301e-05
aF-3.7661907432165011e-09
aF-5.6957067377306246e-05
aF-1.9932846673516773e-08
aF-2.2067471888907878e-07
aF3.6041502145524469e-06
aF-1.4725634399333603e-07
aF-3.7927071676047077e-09
aF-1.1613306464412253e-08
aF-2.5988893195121621e-09
aF-9.9556682210098046e-08
aF-5.2405772476130732e-08
aF-8.3769426250864104e-07
aF-8.2905448028800928e-06
aF-1.765584880480812e-05
aF-7.6982996442727779e-10
aF-2.0306623117693932e-07
aF-1.0127557156112693e-09
aF1.6989803295893723e-10
aF2.179623076348177e-10
aF7.4579927396589574e-10
aF8.538819174407212e-11
aF3.8156739215036969e-09
aF1.0869322538234593e-09
aF1.2145274745608906e-10
aF6.3410329743329553e-11
aF2.6045417839324925e-06
aF-9.6061124904153238e-09
aF2.1360045710431674e-08
aF7.697238601463501e-11
aF1.0361854700088519e-09
aF1.4185370692537146e-10
aF6.1631539702795101e-07
aF7.8624719043991084e-08
aF8.0670602497151733e-11
aF6.1158603985169133e-09
aF-6.1650734931799299e-12
aF-1.6744991782262332e-09
aF8.0232874109106325e-10
aF6.0336488724853807e-08
aF-8.2935543061209507e-10
aF-7.313700563440992e-07
aF-3.1396835477132578e-10
aF-1.6361280119052853e-12
aF4.5554619056628513e-09
aF1.2796272738319009e-05
aF1.8884922211699826e-07
aF1.7451453376366468e-08
aF9.3040143109266937e-10
aF6.3286862943704589e-06
aF3.0010631276030653e-10
aF3.5023190423930076e-16
aF-4.734536994337663e-11
aF2.5357379806727332e-10
aF-1.7564502664773083e-05
aF-2.4284858443422602e-05
aF1.2443524233452979e-09
aF5.8194436209797751e-11
aF-4.71632564139298e-11
aF-1.752553345614145e-12
aF5.4231827150896623e-09
aF2.071174855396337e-06
aF5.3272162159124087e-08
aF1.3670861388474961e-09
aF2.0113609784842705e-08
aF-4.0930787410673329e-08
aF-1.0352305314805026e-05
aF-0.0034877152349998661
aF-8.8433288148260191e-06
aF-0.18849907798993684
aF-0.00089076473007556527
aF-0.0078269751995069282
aF-0.00037928036260419148
aF0.02825209750730967
aF-3.8756131943841321e-08
aF-2.3701477815194606e-09
aF-3.7904596860177846e-07
aF-7.4734357354557984e-08
aF-1.2371855614608173e-06
aF-3.5267616103812638e-07
aF-0.00011198921018170943
aF-0.00036384797723544213
aF-1.5045683493986457e-06
aF1.363121697078288e-05
aF-1.3899660801529986e-05
aF2.5337412910225483e-05
aF-3.3904851302952012e-06
aF-3.1977611727555979e-07
aF-0.16221994135725931
aF3.1350824802584829e-05
aF0.0010230671225486987
aF1.455837546921665e-06
aF-4.548237168716046e-08
aF-0.0094976932069946469
aF-0.00044291013529216698
aF-0.00013179309192468044
aF-0.00031113440588618384
aF-2.697730280118184e-05
aF-0.00018383820630409417
aF-7.9101223723793696e-05
aF-4.9810847598387785e-06
aF0.02772254068704319
aF8.3556735396822645e-05
aF-2.3882433843394956e-09
aF-7.8046643629809471e-07
aF3.6937986860926408e-05
aF-1.5148218812737508e-06
aF-1.2792896693016764e-06
aF-6.8520697746556889e-06
aF-8.6861497913971991e-08
aF-2.1011637835239961e-07
aF-1.5936091327844357e-07
aF-5.5803713843622043e-06
aF-4.4636431192854999e-09
aF-0.0022011815370639432
aF-6.1409299463470159e-09
aF1.0487347126894838e-08
aF-7.2774997119572015e-10
aF-4.7366976633311007e-05
aF-5.0609909292210652e-09
aF7.7068072784344362e-05
aF-3.9272088124461609e-08
aF-3.687770033767203e-05
aF-6.9528495498495713e-11
aF0.12536124333171705
aF2.1554505919841006e-06
aF1.0335232171419384e-07
aF-1.7651797550445423e-06
aF9.284298206361581e-07
aF-1.206386382460619e-06
aF-3.3318576921607814e-07
aF2.1139059430790416e-08
aF1.6611782680479457e-07
aF8.0364443417456684e-10
aF5.255412555255511e-10
aF3.9519600474334791e-05
aF9.2253042261657748e-08
aF1.6369575544652654e-08
aF-8.3742707263757755e-08
aF3.2570734657941869e-06
aF5.8163569509891513e-06
aF9.453418784316629e-08
aF-2.6384951538293598e-07
aF-0.0017645527752026971
aF-0.00037137945201256537
aF-0.00011428781474035245
aF-1.4918454815310413e-08
aF-2.9942049327176469e-11
aF0.0011461963176434456
aF-0.00024519252445835633
aF2.2481182126088741e-06
aF0.00022406137461941688
aF1.6144923844397531e-06
aF3.1630747187359574e-08
aF3.2922711495310253e-12
aF-1.0361854700088519e-08
aF-9.453322325879423e-07
aF4.4796455740181422e-05
aF-0.00016413753508893466
aF-3.9984819516984204e-09
aF-5.8157299711473055e-08
aF1.6780488487154512e-07
aF5.0350629012998207e-11
aF1.1690762589489482e-08
aF-1.4791515511945989e-06
aF-4.6039515620468146e-07
aF-8.1115275892676046e-09
aF-1.9301719118871312e-10
aF-1.3938244176412789e-05
aF2.6795671563921039e-09
aF-4.9306466430232339e-09
aF3.5846077351743068e-09
aF-0.13262938657526518
aF-7.9802958854474679e-07
aF1.2199195012007624e-07
aF-0.0016698305898654141
aF-0.0022483690045456122
aF-2.6158852961480368e-07
aF-1.735489848072225e-06
aF-5.6911249619632919e-08
aF-0.00018237010888980348
aF-0.0011566717039241268
aF-3.6224194425594546e-08
aF-3.3814469747289042e-07
aF-3.6402835451301923e-08
aF-0.015885064814561849
aF-0.11656519844280992
aF-2.2915438010394692e-05
aF-5.8169067640812319e-06
aF-9.4776298520555887e-08
aF-1.1012852692798622e-08
aF-0.00027195974078330129
aF-0.0042679193043487582
aF-1.7596623324363017e-05
aF-3.2684844989157765e-08
aF-1.3616844663639035e-08
aF1.2326134315372048e-06
aF-4.853074767821357e-05
aF-0.00023521582829803537
aF-8.6169890919197724e-09
aF-2.4087215105585436e-10
aF-2.0826051802053676e-09
aF-1.1431675227151456e-05
aF-7.761209837019189e-05
aF-0.00025167453143866734
aF-6.9953780748141417e-05
aF-4.4354290264024499e-08
aF-3.8835517237662682e-06
aF-0.0019591480264241168
aF4.4920694207304056e-07
aF4.4172851943638117e-08
aF4.7033326899011961e-11
aF7.6422572922555058e-08
aF1.635259885970422e-07
aF0.00010973690567292577
aF1.0971182647925195e-11
aF5.9814262745815059e-10
aF1.4592907589736757e-08
aF6.501896710063085e-06
aF6.9170055945834467e-10
aF1.5980655125833995e-09
aF2.4096957407743343e-07
aF0.015688289602659552
aF0.0019243554681235488
aF2.7483420221207015e-06
aF6.8717858792208024e-11
aF6.1173265667624605e-11
aF1.2663256553410545e-09
aF1.3402514016165061e-08
aF3.2940845681505163e-05
aF5.805071313835931e-06
aF5.0535443378686831e-10
aF8.9790168984451181e-09
aF2.7188160944916359e-08
aF4.946128222194958e-07
aF5.3502311990300013e-05
aF1.0352980523865474e-11
aF1.2548567471571412e-10
aF4.2110088263966228e-06
aF8.8577397053447452e-06
aF0.00011685071541694267
aF0.00075339248214283149
aF3.7306554549494387e-10
aF2.2701589655106756e-11
aF3.3743765712816306e-05
aF2.1677297510405529e-09
aF1.0352691148553854e-09
aF1.9423353208189352e-09
aF6.4958873494250875e-09
aF3.3453232899948802e-07
aF1.0471527943192888e-08
aF1.4371631934783879e-09
aF0.0015323001500956608
aF4.9142487086980419e-06
aF1.6641684796013627e-09
aF1.2464552172764106e-05
aF2.0880454360638427e-08
aF5.182239184790275e-09
aF1.8138333907717577e-06
aF0.00024116056178310333
aF1.0597502662185241e-06
aF6.3226769337324621e-06
aF2.1796713055667805e-07
aF2.5799641741321469e-08
aF7.4648895179192571e-08
aF5.9467976956241897e-08
aF5.5399456533287462e-08
aF6.7569424638821366e-06
aF1.0828231243984408e-07
aF4.5970354920990722e-09
aF1.2936523306018e-06
aF0.075948286786808206
aF0.0002302655813005717
aF4.9223705091108727e-10
aF-8.9752646652377654e-07
aF0.018415169622501695
aF1.8024898785562137e-06
aF-1.5778381783010898e-08
aF1.2582231466156658e-10
aF7.672275157914328e-10
aF4.3821068023144151e-05
aF-1.4221060314303739e-05
aF-0.0012775341257445089
aF-5.9721952021407948e-07
aF1.7307826763365231e-06
aF2.2438643955280452e-09
aF3.4756868678801522e-07
aF-1.3507943088032322e-06
aF0.00061741695238085514
aF-7.9368799428605931e-05
aF4.9004455063337194e-06
aF2.9278511737629451e-09
aF2.4458965922581251e-05
aF4.4255420365887311e-05
aF2.2226821227173856e-07
aF4.2022021710796228e-08
aF0.00073614764273896235
aF2.6025740318134694e-09
aF1.1386822053850195e-07
aF-3.7125212687545215e-07
aF0.0014332373350840627
aF-8.5065924105363506e-05
aF4.5984341394385735e-05
aF5.5648705135030384e-07
aF6.1713143540672242e-08
aF7.6687061957376673e-07
aF1.2383044793324183e-08
aF7.9155915657690073e-07
aF-0.00058153344915547569
aF-1.0574063261943937e-05
aF-3.5392047487809678e-08
aF-0.048134110584418348
aF2.9031771055253926e-09
aF0.0023296352378925174
aF3.0517809738865104e-05
aF4.1861611329720972e-06
aF3.085117009785252e-07
aF-1.1349878472399911e-08
aF-6.2421341386646097e-07
aF0.048550907491589836
aF-0.010079038562197568
aF6.2331442123169161e-07
aF6.2333564208787723e-05
aF0.00032176798400388449
aF0.00047654326317750687
aF0.40794973931085865
aF-5.6781030729403457e-08
aF5.997814563062976e-08
aF5.6181445083724687e-05
aF-4.4468689970552009e-06
aF6.8717183583147563e-06
aF1.1900945524163554e-05
aF1.037989242784623e-07
aF2.2774319316760841e-07
aF-1.4792287179443645e-06
aF8.4372677317156732e-05
aF5.2829032098595095e-05
aF3.5284978622509896e-09
aF-5.0156458178900491e-06
aF-3.8521448566116662e-08
aF-7.9598949259781872e-09
aF0.00025487791613831206
aF-6.3490197329336955e-07
aF-1.5383963233271439e-09
aF0.0029249863581778971
aF4.1965111232844091e-05
aF0.00010103442546810942
aF-1.3129054346683191e-08
aF7.7345101416002887e-05
aF-8.149619026120653e-08
aF-6.4868009646401878e-11
aF1.1296729873498851e-06
aF9.1200777170166482e-10
aF-9.464328233564741e-06
aF6.2077467058003107e-14
aF1.7433512107045962e-13
aF-1.2643000281597072e-07
aF-2.9052413160816221e-09
aF1.9197254631376122e-12
aF-7.7213821482964153e-10
aF-1.3947600644821869e-08
aF-5.8115340291288008e-12
aF-1.1964897468031799e-11
aF-1.2138040362818381e-05
aF-1.1654880050848474e-08
aF7.7356579970030537e-07
aF-1.2364428314943231e-06
aF5.6367706325971414e-09
aF2.6505331667927943e-10
aF-1.9103689947285322e-11
aF-9.2671768337573368e-05
aF-2.5501392253477398e-07
aF-1.0154179684781828e-13
aF-5.8267262329889048e-10
aF-1.1324220528102846e-09
aF1.1897955312610136e-06
aF-9.644840552953939e-12
aF3.9229839328964936e-10
aF-1.498337134355073e-06
aF-6.3294097326495117e-06
aF-0.066691267026488754
aF-2.5918382077523294e-08
aF-4.1079912154595375e-10
aF-2.8685581724117966e-09
aF-9.8502391491425427e-08
aF-2.8433728744570471e-12
aF-5.8884885703325532e-11
aF-4.1519183877636086e-13
aF-1.6218714548860892e-13
aF8.6510389202538461e-10
aF-3.1567663369426188e-06
aF-2.9613608348486605e-07
aF-8.3267842377387653e-05
aF-2.8588255160976096e-11
aF-8.0809888480478661e-14
aF-3.8235545758235091e-11
aF-1.3705972259618311e-08
aF-0.00049467166186619208
aF9.7597611350423694e-10
aF-0.00086469394366725484
aF-0.00014616829282164097
aF-4.8952849799431437e-07
aF7.1980758347609504e-09
aF-2.7433744126045409e-11
aF-7.2665227418030441e-10
aF3.4708060709574774e-08
aF2.1668712709494106e-05
aF2.2032746851513357e-09
aF2.4093677820878308e-07
aF-6.0768236689792378e-11
aF2.0833382643281407e-09
aF5.7928114464669211e-11
aF2.2044128947103782e-08
aF2.0798754064324089e-07
aF8.8527720958285842e-08
aF-1.0937615111777155e-07
aF1.7039575849492542e-08
aF-7.0423147503590732e-08
aF0.067229890939852696
aF2.94801098713921e-09
aF8.4510034131739514e-06
aF-1.7824843986794799e-10
aF5.7985410776370173e-10
aF0.13498104327437208
aF3.4375182642773386e-09
aF8.2611828545942788e-08
aF1.2854533634392042e-05
aF7.5830318118104014e-09
aF6.6179555017105567e-07
aF-2.9057911291737022e-11
aF3.4174356176508394e-05
aF-3.728716640361578e-07
aF9.5140814954761173e-05
aF6.5879762194266195e-05
aF1.2056629441815666e-06
aF2.5790092356037972e-08
aF2.5732120835276563e-09
aF1.3117865167967178e-08
aF-1.8228908380254962e-07
aF0.00074670116035378126
aF6.525625485616009e-10
aF-1.4302181859994832e-11
aF1.0994814965040911e-10
aF2.0992346147798559e-08
aF4.0564438266161117e-08
aF2.5406477151265699e-07
aF4.7233381697779299e-07
aF3.6600768164450704e-05
aF1.5409235343819676e-06
aF0.037978484023078414
aF-3.0167279778054834e-06
aF1.760964521338596e-06
aF-2.3279086318665116e-07
aF2.2374113260788961e-10
aF3.9477641054149744e-10
aF-1.3993804236244025e-09
aF-2.6483532061119164e-09
aF2.8411832679324478e-10
aF6.9886645675845336e-06
aF0.00022364660333942674
aF8.8720830749574279e-09
aF3.6530835797475625e-09
aF-9.8809129321743728e-10
aF6.3499746714620455e-09
aF4.0830760011289669e-07
aF-3.9519696932772004e-05
aF-9.8594027006772089e-08
aF0.010248226661058662
aF4.4291109987653908e-06
aF-2.2111071102525446e-06
aF3.0066480711173504e-11
aF2.358408789711368e-08
aF0.047457454647411183
aF-1.6997230595558663e-08
aF-7.8851782205176381e-08
aF-8.6453575183023539e-08
aF0.00033531171317212062
aF1.522914744155419e-09
aF-0.0011266056090467021
aF-4.7311513031916976e-08
aF3.3318673380045017e-06
aF-0.00022406233920378894
aF-1.613373466568152e-06
aF5.3200782915590898e-08
aF8.1473329611588455e-05
aF2.3468723606214097e-06
aF5.5769181723101938e-08
aF3.6507010563485493e-11
aF2.4862162190106551e-10
aF2.1605146599374684e-11
aF1.7527366166448382e-07
aF-2.1512835874967577e-07
aF1.7967602473861171e-09
aF0.00061736872316225152
aF-4.7670820710513086e-08
aF3.7501497051089753e-05
aF2.4085478853715711e-07
aF2.4563237493202031e-07
aF0.00020417068028295957
aF4.326932576232006e-08
aF1.4639014722721709e-06
aF0.0033122091085017137
aF-0.00014715602721864074
aF7.043607293417646e-07
aF0.006255580444811267
aF0.0018818655265338611
aF4.4683213534900394e-09
aF6.6909648928325422e-07
aF7.9305329776923733e-05
aF4.772049680567469e-08
aF8.854749493791329e-05
aF1.5458043313046421e-05
aF3.2704618968785203e-09
aF2.5580777547298767e-09
aF5.2356289297843539e-06
aF3.2991582819476054e-05
aF5.7773780965137993e-06
aF0.00018152609756424214
aF0.010968481811683396
aF0.0095266596756879117
aF0.00012904788480176893
aF0.16334271756634891
aF0.00010779905566943696
aF2.3762053713760609e-06
aF0.00014011552588690115
aF1.3839277819838397e-09
aF2.689049020769553e-07
aF0.00016203956407968219
aF1.3797221941216142e-06
aF1.0524483625219535e-06
aF0.033884980864887372
aF1.3218278401099674e-05
aF5.9053784426875006e-07
aF-6.7484058921893169e-05
aF0.039547284045813202
aF0.038119506258275059
aF0.038499648959307881
aF2.581218133815838e-05
aF4.2994708591591706e-06
aF1.7796678123130352e-05
aF1.5972166783359779e-08
aF0.00023961626220341914
aF7.1004695421511783e-07
aF2.218900951978871e-08
aF-0.00010965105766381152
aF1.967646014742054e-08
aF9.2059257261308857e-11
aF3.494775992603419e-08
aF0.00060432175494563151
aF9.6208995688391604e-06
aF3.1870542862256195e-09
aF3.286850185359991e-09
aF8.1272310228449054e-07
aF0.018984274402023046
aF1.3537845203566494e-07
aF-2.9355774945832266e-08
aF-2.0605451356161244e-08
aF1.5338917143095764e-06
aF1.5599354923554689e-06
aF4.556629052753056e-06
aF0.010586795775655264
aF-4.3772452970791816e-10
aF1.2622261717597567e-08
aF3.7903439358931361e-09
aF7.3146169185944593e-08
aF0.085203956129006747
aF-3.5880705930700389e-11
aF-5.3916215144355289e-08
aF-4.0023402891867002e-06
aF3.2622918672470862e-06
aF6.6539055612576103e-05
aF-0.00075339055297408725
aF-6.7676107670372321e-09
aF-1.2299704703577327e-05
aF-3.3730936740667779e-05
aF3.9486611688810003e-09
aF6.3767901170055939e-07
aF-9.7356465257406171e-10
aF1.1496398838517357e-07
aF-3.3091417301985306e-07
aF3.6246765699900978e-07
aF7.9183599229168484e-11
aF3.3414360149754371e-06
aF1.3328530394827285e-07
aF4.2076038435632157e-06
aF1.8647152163984552e-09
aF9.4049966488387108e-08
aF-3.1971149012263108e-09
aF5.3633495464901554e-08
aF8.8134074076044054e-08
aF-3.2019474689303814e-10
aF-4.8354903947185196e-06
aF1.4580271534462641e-09
aF1.1510095936600752e-09
aF-5.3604365016865031e-11
aF-1.4927232533096249e-06
aF-5.3264831317896359e-08
aF-1.3879983280339755e-09
aF-2.9934043276888281e-09
aF-3.5316327614602174e-09
aF-3.0965955638128867e-10
aF-6.3906704861196826e-09
aF7.6361128898054202e-07
aF8.3502815130423924e-09
aF3.0799757750821191e-08
aF-1.0733509058647123e-09
aF-9.0392166091060123e-06
aF-0.028977272038231961
aF-6.1441420123060086e-08
aF-5.4857360116184082e-09
aF-4.0707196753227494e-09
aF-4.4658713091849814e-10
aF-4.1431406699777711e-08
aF-4.6588364128176033e-08
aF5.5085966612364688e-11
aF1.0891218603480584e-09
aF-2.0266110574066988e-08
aF-1.3656585539768323e-05
aF-6.3136773615410479e-06
aF-2.6015419265353546e-05
aF3.1630650728922365e-10
aF-2.003084844571909e-10
aF-2.6376366737382173e-07
aF-3.2212584480592251e-05
aF-0.0010243693114509933
aF-1.8036473798026978e-06
aF-5.2902051135560797e-09
aF-1.3712627891785594e-08
aF-2.3864299657200043e-11
aF1.9962748789050944e-07
aF4.3399158818800698e-06
aF7.1674599267914459e-07
aF-9.0877255571774168e-10
aF-1.0193631185599496e-09
aF-1.3025554443560071e-08
aF-0.025003570259052022
aF-3.1537664795454806e-06
aF-2.2445396045884937e-08
aF-2.528137055820821e-09
aF-4.3120972685895682e-05
aF-1.7179247666568289e-09
aF1.2696824089558583e-09
aF5.7874387115144905e-08
aF1.6593744952721746e-09
aF4.3250998659250733e-08
aF-1.4914403560947719e-12
aF2.0541402953855789e-09
aF1.3902843929957816e-11
aF-8.7426262063819013e-12
aF-1.2898229306446819e-13
aF-3.5741612864247878e-08
aF-7.4327977958604863e-15
aF-8.9108400750272045e-11
aF-1.9891755379266587e-07
aF-9.1456681404076668e-09
aF-1.33177270498601e-07
aF-8.6309080444087434e-07
aF2.4765125002276299e-09
aF-1.472052210216163e-09
aF-7.0626385430785895e-14
aF-1.591506338853323e-07
aF-1.5128155457798452e-10
aF-2.0534843780125717e-14
aF-4.7181679975436346e-12
aF-2.6537838161266706e-12
aF-5.229889652770537e-11
aF-5.0118453554640931e-10
aF-4.6563092017627792e-13
aF-1.3134359560729576e-13
aF-4.4100508115732855e-14
aF-1.3790759225923273e-07
aF-1.4978451963253172e-05
aF-2.3116650310408517e-08
aF-3.7077176385816127e-12
aF3.2807636579722284e-14
aF-5.7388140133184374e-14
aF-1.1803715419458888e-12
aF-7.6567357036802784e-11
aF-1.5152366525537409e-14
aF-2.1563380096064048e-15
aF-1.1595365195091749e-14
aF-1.6793606834614665e-14
aF-5.5671758701522855e-14
aF-3.578559791161427e-11
aF-1.124348481616058e-07
aF-2.3788386867118125e-08
aF-1.3266218244391559e-10
aF-1.452220355526402e-11
aF-6.8010914905917851e-13
aF-4.1305046147036532e-13
aF0.0094409081250108814
aF0.00034420807483572299
aF4.3742743772132059e-07
aF7.7604285236778124e-05
aF2.8841072724895666e-05
aF1.7978405818828357e-05
aF2.6498193743574629e-06
aF5.693189172519521e-06
aF2.2456392307726539e-08
aF1.6507414651421471e-09
aF1.3966506498514442e-08
aF3.7323724151317237e-09
aF1.1296247581312814e-07
aF7.4306853560856524e-09
aF5.8722931987254951e-07
aF3.2964285081746467e-06
aF8.8466566309096611e-08
aF1.1911748869130738e-08
aF1.4872926432948704e-07
aF5.5315730609791784e-07
aF1.7893908227835016e-06
aF1.9481614104262383e-07
aF0.15389654281066653
aF1.2393462304542541e-07
aF1.2134278483767308e-08
aF2.7129224839782881e-07
aF2.6329487936899566e-09
aF3.3949897393127689e-06
aF4.8852822400047768e-06
aF0.00010742961985493412
aF6.7974550075090801e-08
aF3.971348193312088e-08
aF2.7155943826889223e-05
aF1.5865483751808827e-08
aF2.3801987506764312e-06
aF7.3224975729142714e-08
aF7.438546718718024e-07
aF1.2314945136656036e-08
aF4.6306416116219945e-09
aF9.8853500202858944e-08
aF1.3027097778555383e-06
aF2.6386012581102876e-07
aF6.421093477214773e-06
aF4.5602751816794816e-08
aF3.3126721090003071e-08
aF8.1268258974086347e-08
aF2.9768134764892227e-06
aF1.5756775093076527e-09
aF4.0000831617560562e-10
aF1.938110441269268e-08
aF2.2442212917457109e-10
aF1.6255272296562349e-05
aF1.6812416229870033e-08
aF4.4190021545460962e-11
aF3.257989820947654e-06
aF-8.2917023041265769e-08
aF2.677734446085171e-08
aF2.5419981332474681e-12
aF6.9248958947469806e-08
aF7.9900478334490977e-10
aF1.5836160386897897e-06
aF7.9013543004372522e-09
aF6.9959664712811046e-08
aF7.3173466923674173e-06
aF2.8900876955964013e-10
aF-6.9104464208533705e-12
aF7.8791785057233615e-09
aF2.7819481416436237e-07
aF8.9877753245435156e-11
aF1.7476821945351911e-10
aF6.9268829385534446e-11
aF0.027862019587244526
aF2.4080559473418153e-06
aF-6.2875757084328317e-10
aF3.8511899180833173e-09
aF-1.9348983753102745e-09
aF0.00022752809085263678
aF8.1810837683375787e-07
aF-1.0544836355470214e-07
aF-0.00074660373733220211
aF8.3693417002344974e-06
aF1.4881414775422921e-09
aF1.0714217371205721e-05
aF4.6154301160744491e-08
aF6.4618085835598513e-08
aF1.1826093776890914e-07
aF1.3122591631390321e-08
aF1.4070488693823597e-10
aF3.2405887188755097e-05
aF4.8048166116866903e-05
aF2.2143674054301417e-07
aF2.0480634138415375e-06
aF0.00074628638907379106
aF8.2892715515089603e-06
aF2.1418306606504711e-09
aF7.5733280930273767e-07
aF4.9133709369194581e-08
aF-1.6509440278602818e-08
aF1.5302359395394308e-06
aF0.00016593455577410123
aF1.8693452213843916e-08
aF2.7908223178666682e-09
aF1.2140065989999729e-05
aF1.9531386657861201e-09
aF4.1379126226811513e-05
aF3.4197023909252041e-10
aF7.7439148392279725e-09
aF6.2112288553834839e-07
aF0.00021540905280194815
aF0.0016722613424830306
aF0.0022475876912042355
aF-6.4776374131055214e-06
aF-2.53830377510244e-07
aF1.573671173813747e-08
aF0.00018281092394783948
aF0.0079833053886883276
aF1.5697260237319803e-07
aF3.4196927450814835e-07
aF3.6447785083040388e-08
aF-0.0025134078524593107
aF0.11973868102692052
aF2.4272125929711277e-05
aF-1.4226269069912917e-08
aF3.4185063063038372e-09
aF-4.3880679337338079e-05
aF0.098992400352437046
aF0.0042695976811561592
aF9.6971596092950205e-05
aF9.6512453931844845e-05
aF1.396718170757489e-08
aF2.3420783762922217e-09
aF5.0348603385816856e-05
aF-6.8835538085600569e-09
aF-3.0890332223358572e-08
aF3.3882569403957195e-09
aF4.9947529203910116e-08
aF-1.310040619083271e-05
aF0.0001345093615164298
aF0.0002514169874113246
aF9.2000803448361417e-05
aF-0.00073606854682045262
aF3.8832816401420898e-06
aF2.0781970296250074e-06
aF-7.5731641136841249e-07
aF3.5112125103034936e-12
aF8.9801358163167193e-12
aF-3.8941332143278774e-05
aF-5.5476912658364688e-07
aF2.3734177225407788e-10
aF5.0712155235650075e-10
aF1.2449118822810985e-09
aF-1.2538342877227469e-06
aF2.0985786974068479e-12
aF8.1035215389794229e-11
aF4.5377328449042038e-11
aF1.2422785669453471e-09
aF-1.9211626938519967e-09
aF1.126287296203919e-08
aF-2.4423758593000695e-05
aF5.079067240353658e-10
aF3.0423955679462685e-11
aF6.1992680091698137e-10
aF3.7737530846935309e-06
aF-0.057737609051185364
aF2.8946501796762927e-11
aF1.2589080015198354e-10
aF4.2132370162961043e-06
aF3.0231714014109118e-06
aF1.5372774054555425e-07
aF0.0075419405175602174
aF-3.6249755911454399e-12
aF-1.043207644237522e-11
aF3.3743090503755855e-05
aF6.2812576807957724e-09
aF1.075395824733501e-09
aF1.2150194125906463e-08
aF-8.2561863075469555e-09
aF3.3341726946537496e-07
aF5.1062588738023141e-11
aF0.0028534334894577381
aF-6.3325928610773428e-07
aF1.0767655345418406e-10
aF1.2252536527783103e-09
aF9.8549656125656868e-12
aF2.4570664792866968e-10
aF2.2060430422991768e-08
aF9.971583863148962e-12
aF1.1343126381795422e-10
aF2.1098643345600681e-09
aF4.8773051272477575e-06
aF-1.0904722784689564e-09
aF4.8298282844544672e-12
aF4.2277925944706422e-14
aF3.7751517320330326e-14
aF-3.0243385485011159e-09
aF-2.1604664307188653e-07
aF3.765245450531872e-13
aF-7.1326577226471567e-15
aF1.3950880231686907e-08
aF3.033598558472989e-12
aF2.7255392475649646e-13
aF0.0074442763498881199
aF1.1426370013105068e-08
aF1.1671760277359698e-09
aF1.3353513130063901e-13
aF7.6217116451304132e-11
aF-4.3544425225234452e-10
aF1.6708434034560876e-10
aF9.2671768337573368e-05
aF4.5670369181276925e-07
aF8.3984046273649704e-14
aF-2.6342220450610895e-14
aF7.2934925208461237e-09
aF-2.8590087871283032e-08
aF7.7089486557404318e-11
aF-8.0367337170572893e-10
aF1.4984721761671628e-06
aF1.4002871329341484e-09
aF0.057969880967979844
aF4.5082744381811824e-06
aF4.0116774659083384e-11
aF2.3910503248622203e-09
aF9.7354536088662021e-08
aF9.9888499234090168e-12
aF3.727732764302067e-13
aF6.2622457228222716e-13
aF7.7777235214690297e-14
aF3.0464178847778002e-13
aF6.6162578332157142e-05
aF6.7805169059355306e-05
aF9.2879636269754484e-05
aF1.1734168886232635e-10
aF1.9702214550154813e-14
aF3.4919594062369747e-11
aF9.8692414612723242e-10
aF0.0004806851884711758
aF5.70128203540119e-12
aF3.8235159924486265e-10
aF0.0012669622810266208
aF3.2189337997225362e-05
aF5.2620199582041916e-11
aF2.4846632381716219e-05
aF-1.8270674883565595e-07
aF0.00016105568802017074
aF-3.5183311429693708e-08
aF5.0099547700948359e-06
aF3.3996776193610292e-06
aF-7.2428711329998856e-06
aF-6.0135565800151598e-11
aF2.9463904853941322e-08
aF2.1048870792001866e-08
aF7.226251344269118e-11
aF1.2277519263019714e-10
aF-9.3009083492486286e-09
aF7.700190229642036e-09
aF-8.1878840881606732e-10
aF2.3833047123544971e-08
aF1.0247262076686592e-09
aF-1.0069585635351282e-05
aF1.2730005791957794e-09
aF1.905488197805858e-09
aF9.3998457682918579e-09
aF2.3901243238650324e-06
aF-2.195095009676181e-09
aF-1.8976461268609276e-09
aF-1.2017756691621241e-10
aF1.1082495684462081e-09
aF0.0189657543820793
aF5.1281645848920259e-09
aF0.00014074732865060707
aF-4.3335592708681276e-06
aF-7.168270177663984e-07
aF8.3070199039550494e-10
aF-6.2690942718639685e-11
aF3.4036324152865165e-07
aF-0.0027231856616971137
aF1.9311461421029221e-11
aF-8.2568036415450811e-09
aF7.2452536563988989e-07
aF4.6080510456281128e-08
aF1.0652483971393236e-08
aF-1.2833602153518121e-09
aF-5.4479243042332598e-08
aF-1.5747322166230239e-09
aF-2.5058069276073985e-08
aF2.9488501755429111e-10
aF-2.0535518989186164e-09
aF-1.4172059428202579e-11
aF5.1862325640906454e-12
aF5.6831574950499933e-09
aF-2.3132083660361638e-07
aF-3.8957826536041171e-06
aF-1.5462480401157944e-06
aF-0.037978387564641204
aF-1.4446965974242555e-06
aF-1.7405153326507104e-06
aF3.6230464224013e-08
aF-2.1128834836446475e-12
aF-3.7674639945876332e-11
aF4.4203815101981562e-07
aF8.192224717834988e-06
aF1.3341552283850231e-07
aF-6.5186997698245453e-06
aF-5.3520542634932135e-06
aF1.1716999284409787e-11
aF-6.1233455732441776e-10
aF9.6833660527744185e-08
aF2.2118594860627594e-06
aF-2.1483126676307819e-09
aF-4.6149960531070174e-12
aF-8.9813608384692493e-11
aF-0.0094393937275467302
aF8.0197570321088565e-07
aF8.6866127918957919e-08
aF-5.3612274608716008e-12
aF-2.319931519109492e-08
aF0.00034527876348872084
aF3.9436356843025146e-07
aF5.9110501987952721e-09
aF-1.3277021589358741e-12
aF-8.5818106998703752e-06
aF5.4027431722454975e-11
aF-7.9803151771349109e-12
aF7.2304955155062266e-11
aF-4.3013614445284279e-09
aF-1.4904564800352605e-11
aF2.6243350552473711e-10
aF1.8185887917260631e-09
aF-7.8699667249700916e-06
aF-1.9710895809503442e-06
aF1.159112102385464e-07
aF6.1361456078615486e-08
aF4.7912931387902677e-08
aF3.8561189442245955e-08
aF0.00063494248583699649
aF0.037778139848999456
aF8.678037636828088e-05
aF-0.00045091522099597665
aF-2.6993700735507031e-10
aF-3.3935139252235013e-06
aF7.0925599503002043e-08
aF-5.346122069604983e-11
aF-3.7851448261276785e-06
aF1.3729508118296821e-07
aF3.6154165600182255e-05
aF-0.0031533517082654905
aF-3.0120786811321048e-07
aF-7.0501375296165614e-07
aF-0.0062555032780615017
aF-0.0018818655265338611
aF-4.4501775214514019e-09
aF-1.8343115169908058e-07
aF5.2960987240694279e-06
aF-2.1570228645105749e-08
aF-7.1454963406394102e-06
aF-1.5458043313046421e-05
aF-2.1494798147209866e-09
aF2.2382987437012004e-09
aF7.5781027856691244e-06
aF-3.2991293444164431e-05
aF-1.436324005074687e-05
aF-0.00018135054320852538
aF-0.010965105766381154
aF-0.0095010113772345684
aF-8.2056035030755994e-05
aF0.0016421856017618855
aF-9.9778536615674157e-05
aF-1.6299836094551987e-06
aF2.1513028791841991e-09
aF-1.3031438408229699e-09
aF-2.6566004024931155e-07
aF-0.00015986249715192001
aF-1.3796160898406865e-06
aF-1.0518889035861529e-06
aF-0.033760935314639154
aF-1.3219435902346159e-05
aF-5.8799712903271737e-07
aF-3.1311952052390407e-05
aF-0.038562732777241267
aF-0.038032307831039926
aF-0.038397210098994043
aF-3.1373396076891275e-08
aF-4.2994226299405671e-06
aF-1.7788768531279377e-05
aF1.7098511954626021e-09
aF-0.00023992492920248156
aF-7.2994150688906335e-07
aF-3.0405917951704972e-09
aF-8.5503266659660081e-08
aF1.8038981717394357e-05
aF5.945408694128409e-07
aF-2.9259316508625258e-08
aF-9.2175586136580527e-08
aF1.3803298822760184e-07
aF3.6695779725099609e-08
aF-1.0866042951369554e-06
aF1.7658935474798745e-05
aF-0.018608375872227332
aF4.142465460917322e-07
aF6.9150185507769836e-07
aF9.758217800047058e-05
aF4.0705749876669388e-09
aF7.0067119411859661e-07
aF6.0605414847786938e-08
aF9.4262850259302989e-12
aF1.2808137126095472e-07
aF1.8215982949669218e-07
aF1.8734447049656893e-05
aF0.0002141830660650471
aF2.564058177836711e-07
aF2.6073197869240542e-10
aF-3.510662697211414e-07
aF9.7123035839365205e-08
aF0.00019875164528066979
aF0.17319015942081242
aF3.385073811967888e-06
aF8.4595014014918898e-07
aF1.5302166478519895e-09
aF-3.639907357225085e-07
aF1.1761948916148253e-06
aF-2.4645516540139608e-10
aF1.837629687230727e-09
aF-4.0274484203916846e-06
aF9.3079883985396219e-09
aF2.7210539302348387e-08
aF9.2554474877929638e-06
aF9.5449771329135222e-07
aF4.5523752356722269e-05
aF9.7522373769402227e-08
aF8.3571975829901353e-08
aF-1.6884181307152049e-08
aF5.2300246945826266e-10
aF7.7071448829646607e-05
aF6.8528028587784619e-09
aF3.6265671553593555e-10
aF0.0002348377112241839
aF2.585018596241794e-09
aF2.6918656071359982e-09
aF1.386946931068419e-09
aF1.5237249950279579e-07
aF2.4454335917595313e-11
aF1.1623531058756196e-09
aF3.2547102340826155e-09
aF2.4641079452028085e-10
aF1.1175481617929639e-12
aF4.4738484219420016e-08
aF4.6720512187149633e-11
aF3.8029317619486509e-05
aF1.0133634037656736e-07
aF3.4121496952918954e-10
aF1.5173008631099708e-09
aF1.7345349095438758e-09
aF3.2789502393527372e-12
aF7.3763696100943862e-11
aF8.075172404284283e-10
aF6.6519185174511452e-11
aF8.1801674131841124e-09
aF1.5990686803303524e-09
aF8.6574534063281134e-12
aF6.0175210217843695e-11
aF3.0336274960041513e-05
aF3.8963999876022427e-06
aF5.439156232291143e-06
aF0.0013301522032409321
aF1.4342019194561328e-06
aF1.5696488569822146e-08
aF4.1865855500958081e-09
aF4.3032230923665231e-06
aF2.9943496203734575e-12
aF5.313133284080186e-12
aF8.5378256525039809e-11
aF4.0334867185608437e-11
aF3.5021068338311525e-13
aF1.3299785780539595e-07
aF5.218247119399651e-08
aF7.8177055436913345e-07
aF2.831141944619198e-09
aF1.6647182926934427e-08
aF2.1160955496036408e-10
aF5.2320117383890918e-08
aF-3.8274804342178342e-09
aF9.3361156788291856e-08
aF1.1514050732526241e-13
aF3.6353448731451935e-06
aF6.3118735887652767e-07
aF1.430903040903653e-08
aF4.1478285500260318e-10
aF2.1436826626448454e-10
aF1.1620540847202778e-06
aF4.5413693279869077e-14
aF6.5292716145424341e-11
aF8.3510724722274896e-13
aF3.5457542766673238e-11
aF9.2549941331380923e-12
aF1.0339283425782081e-06
aF1.5415408683800924e-08
aF5.6903629403093565e-11
aF2.1984807008221474e-12
aF4.0688290899534914e-11
aF1.1576941633585211e-10
aF2.9782024779850039e-14
aF9.410350092103701e-13
aF2.8647384182983993e-14
aF1.1368977242966899e-08
aF3.1515961647083228e-09
aF-6.593300725160446e-13
aF9.366104606956846e-14
aF1.6716054251100232e-13
aF3.7822221354803057e-08
aF1.0155530102902728e-06
aF8.0006871990730298e-11
aF-5.9675748429985791e-12
aF0.0014871672473265015
aF8.7955818884085497e-11
aF1.482855555183348e-12
aF4.0465086075837893e-10
aF5.4346805608047377e-07
aF2.076267860880867e-15
aF8.462462675514144e-14
aF8.571094167496678e-14
aF6.6106150146391039e-12
aF1.5412900764433541e-09
aF8.2033946048635599e-10
aF5.4953722094953877e-07
aF1.4552009212360987e-10
aF8.1686888591564782e-13
aF2.9255651088011391e-11
aF1.388374515939083e-10
aF1.9619646127905614e-17
aF3.819638363272905e-13
aF2.5194075672535869e-21
aF-1.372053748363657e-18
aF5.6119518767037791e-10
aF4.1484844673990396e-12
aF-4.5965628457567586e-20
aF1.274688601846902e-20
aF9.361204518346728e-22
aF2.7026689521031831e-18
aF1.6513491532965514e-19
aF1.6094186706426645e-21
aF9.8225555776641317e-19
aF3.3212183265368486e-22
aF-2.622454115721834e-18
aF7.6125288019083064e-23
aF5.6981278445045212e-22
aF-7.0633909188888043e-23
aF4.9553303571045069e-20
aF-2.5846231166492451e-16
aF1.7158123268819952e-19
aF4.972982251113389e-19
aF2.1940436127106246e-19
aF-6.5280465923899045e-16
aF6.2541817974717646e-19
aF-6.5374512900175885e-20
aF-4.1247749835335567e-18
aF9.2885423775986894e-20
aF-6.1661152443017658e-21
aF2.3405253954531883e-19
aF-3.2102332486864634e-18
aF2.689540958799309e-21
aF-4.0539359072487291e-19
aF3.8848539126685633e-24
aF1.2339542038143822e-19
aF7.5410338082504709e-16
aF1.301426880640685e-16
aF-2.5558785023615569e-16
aF5.910577552452958e-18
aF2.1591642418165705e-21
aF-1.9001347545408686e-18
aF8.4575047118417036e-19
aF2.0388998623068716e-12
aF4.5658504793500464e-11
aF7.7805690453666367e-12
aF7.9244753878357731e-12
aF1.439835092189022e-08
aF3.9648468946443358e-12
aF1.4812929285005945e-09
aF2.1104045018084274e-12
aF2.3525055333542992e-09
aF9.6348088754844091e-13
aF1.2548085179385376e-10
aF3.9511787340921028e-11
aF2.908897090851768e-09
aF2.3958636008788498e-11
aF5.2280762341510458e-09
aF2.2427840610313264e-08
aF1.8082098638825892e-07
aF-5.8226460410950487e-10
aF-1.5314609616919601e-06
aF3.0675326366824151e-10
aF3.9476965845089297e-12
aF5.4800642555106358e-09
aF1.003322080452424e-07
aF4.731016261379608e-07
aF2.8461412316048877e-06
aF0.00014999576361001508
aF1.7663372562910266e-10
aF1.8604228159427429e-12
aF1.5600223049489553e-08
aF0.00048412682551072188
aF1.5375764266108842e-05
aF1.867840469763962e-05
aF2.1082631245024317e-10
aF8.4806257992402241e-10
aF1.5643436429358294e-12
aF1.6281798366794277e-09
aF1.9860309928737099e-11
aF1.1493890919149976e-10
aF2.0817177625830629e-11
aF4.0675654844260797e-12
aF-1.1301649253796407e-06
aF0.0016083576278333874
aF7.0947399109810824e-10
aF5.4937613535940308e-11
aF7.3377669435241411e-07
aF0.074885411267224172
aF2.3523511998547678e-09
aF1.320612463801159e-11
aF3.1133503943557441e-16
aF-1.0605798087785045e-09
aF1.7872880288523889e-12
aF1.694610762383895e-13
aF2.9832086708760476e-12
aF1.1508166767856614e-15
aF9.2906741090609647e-12
aF5.5295570796415515e-09
aF7.6353798056826466e-07
aF0.0074434275156406984
aF2.3882240926520544e-05
aF1.4320798338375785e-08
aF3.3321856508472852e-06
aF7.2610824859445693e-06
aF1.0465933353834881e-10
aF1.482276804560106e-10
aF3.1651871585107907e-10
aF2.4938846647686121e-07
aF1.9596110269227103e-11
aF2.6513337718216126e-08
aF8.2526559287451788e-09
aF2.487759554005967e-08
aF1.3204388386141865e-09
aF2.021797781390069e-06
aF1.961694529166382e-06
aF7.3817423450468166e-08
aF0.00082240077728946981
aF4.4823946394785425e-06
aF8.5811837200285307e-09
aF-3.9442916016755221e-09
aF-4.5493271490564855e-09
aF-0.0067885518937548734
aF-1.152408240999577e-09
aF6.3300945875536803e-11
aF7.2739211039368224e-10
aF5.7735679882441221e-06
aF0.00030201618981700527
aF6.9438789151893201e-05
aF9.2020384511114439e-05
aF9.9784324121906585e-07
aF7.6791815820183487e-11
aF0.00026738182335345661
aF4.7252866302095116e-09
aF2.3770445597797623e-09
aF1.8969805636441994e-12
aF3.1902374146534511e-11
aF0.10698205270629359
aF9.022799383093381e-05
aF6.7452034720740433e-05
aF3.9719944648413753e-09
aF6.1461869311747974e-08
aF-4.1016249586038748e-08
aF2.4513464939603208e-09
aF1.0657789185439623e-09
aF0.00068881259384836687
aF8.433274352415303e-10
aF2.5448243654576337e-07
aF7.7417541702345345e-09
aF-3.6260076964235548e-09
aF1.4120839998045657e-10
aF1.3411774026136933e-06
aF7.3146458561256213e-08
aF1.9969693796529851e-13
aF1.5063817680181377e-09
aF0.0074450866007606592
aF3.9298710653130748e-12
aF4.9424917391122542e-06
aF3.9743191131780643e-13
aF6.4699593215038432e-07
aF9.6376929827568996e-10
aF1.5659834363683481e-10
aF1.078588599005053e-09
aF9.5920874336454251e-12
aF0.00033418507862554279
aF5.4830351753766114e-08
aF4.7324342004065512e-11
aF9.1579183619329572e-10
aF7.6364408484919237e-07
aF2.1028710978625602e-06
aF9.0110410995978446e-12
aF2.2240325408382838e-09
aF6.0477800335362069e-11
aF1.7639354412045719e-06
aF5.0882018543571621e-12
aF9.2583412409091756e-08
aF2.7883915652490521e-12
aF-0.00012393558762979748
aF-5.7694974421939868e-12
aF9.8110770236364976e-11
aF-1.6825823952641807e-10
aF0.13781595674388605
aF1.0969542854492675e-06
aF1.1834003368741888e-07
aF3.559798625124664e-06
aF4.9004551521774398e-11
aF6.5377310194854888e-11
aF5.6502748138061234e-08
aF8.4151691037515467e-06
aF3.4848600652585386e-13
aF1.5308725652249971e-12
aF0.037669238273392747
aF6.5478109261736209e-11
aF-7.0172934317475749e-16
aF3.3381660739541198e-15
aF1.9682826404276204e-14
aF2.7298316480206767e-16
aF4.3180487541652403e-15
aF7.2300228691639123e-16
aF-3.298975010916912e-16
aF5.8841575865019574e-15
aF-8.526607536256805e-14
aF-6.3543345928238026e-07
aF-3.2209401352164418e-11
aF5.5410935087315105e-15
aF-6.0597215880624348e-15
aF5.5823584281686686e-14
aF8.0638096003812972e-15
aF1.8411986494073862e-14
aF7.0577481003121952e-14
aF-1.7140857208559901e-09
aF5.9929144744528603e-12
aF2.9817328567867802e-09
aF1.43319875170918e-14
aF4.2033114431075036e-15
aF-3.716582168960936e-12
aF1.1497170506015014e-11
aF1.9276639925197491e-11
aF-9.7724936487536944e-09
aF-8.4425536540746169e-07
aF-6.2870644787156346e-14
aF1.4244306797670627e-16
aF-2.6629280759738953e-15
aF-6.1964321311159292e-12
aF-4.6826327092765725e-18
aF1.8624773806552522e-15
aF3.0176443329589497e-15
aF-4.3509121437216687e-13
aF4.8259217177475837e-11
aF-1.5949499050616131e-10
aF8.7087500032348005e-06
aF7.5757299081138324e-12
aF-3.1034730503857464e-15
aF1.2345329544376244e-15
aF-9.9421640398008235e-14
aF3.5104890720244411e-18
aF-2.0842835570127695e-11
aF2.1441263714559974e-17
aF-0.000233077344745156
aF-1.1653240257415954e-10
aF4.4375511120210035e-08
aF-4.3803898421321304e-19
aF9.1898557504921993e-15
aF1.926091719993275e-12
aF1.4147269609840378e-14
aF4.7986336258617207e-15
aF5.2902822803058455e-14
aF5.4650360309937835e-12
aF1.2957744162203542e-13
aF1.4179679644741933e-07
aF0.0033234850998112128
aF5.638960239121741e-08
aF1.4149198778584518e-06
aF3.3210157638187134e-06
aF4.2581480646596879e-11
aF3.108971181306546e-13
aF1.1046516687383868e-14
aF3.356551052085776e-14
aF5.8046276050247782e-09
aF2.4942319151425574e-11
aF2.7837712061068361e-07
aF2.9004087483775512e-10
aF7.5745338234924645e-15
aF1.3664495131619297e-10
aF8.4099796398298106e-12
aF2.7572644275623498e-13
aF1.7059542745994389e-12
aF0.020520567931419077
aF9.2727714231153436e-12
aF-1.1750180986808998e-13
aF9.6008747972749842e-15
aF3.5319028450843969e-08
aF1.5619321820056538e-13
aF1.6138557587541869e-14
aF9.7084452464482416e-15
aF6.2626315565710985e-07
aF2.4958427710439146e-05
aF1.3794521104974345e-06
aF1.1306568634093964e-06
aF0.033970539498689986
aF1.3163297091891679e-05
aF2.9131701996200386e-14
aF5.1768568039941238e-13
aF5.4578691691093029e-13
aF2.2740558863738388e-07
aF4.175811142659785e-12
aF1.7707936360899905e-12
aF4.2987956500987212e-06
aF1.778741811315848e-05
aF-5.2060837104678471e-12
aF2.2397359744155852e-18
aF8.5348257951068427e-18
aF-4.9376784630956245e-14
aF6.4131838853637983e-19
aF3.5394555407177063e-18
aF-4.5188462828990709e-11
aF3.4732657611062567e-16
aF-4.0418400192229705e-10
aF6.2187622593293503e-17
aF3.169826809340448e-09
aF-2.4279842604687839e-07
aF-8.1719780918652366e-06
aF2.0753611515711212e-07
aF-5.2740579711676265e-17
aF3.7825115107919267e-17
aF-1.1137959285856113e-13
aF2.9049133573951187e-11
aF1.6314690693881867e-13
aF9.1707280423940489e-13
aF2.6675291434286694e-13
aF-3.7385168175818102e-17
aF7.4428969942360593e-17
aF2.1158061742920197e-12
aF8.0739184446005916e-11
aF6.3725652374559266e-10
aF-3.7801193415491928e-19
aF1.521583617721962e-17
aF-1.0929994895237802e-12
aF-7.662494272381536e-13
aF1.1744586397450992e-10
aF4.1646219639437719e-16
aF3.5244948371068989e-15
aF3.4117927990742298e-18
aF-1.038828431188324e-13
aF-7.2215441725334154e-17
aF1.2611072538881551e-12
aF5.1237950176865479e-18
aF-9.7027541986530258e-11
aF6.3621091428626872e-08
aF-1.528133145608318e-18
aF1.6894405901495992e-15
aF1.2193503964212411e-10
aF1.5401808044154733e-11
aF-3.3893662124235998e-14
aF3.6430519022780331e-14
aF-1.2879516369628659e-12
aF-3.381823162634012e-17
aF3.355962655618813e-15
aF-3.7368095032432463e-08
aF-8.6460616648939641e-15
aF-3.8586750928105812e-08
aF0.00060969352531368992
aF-0.037778139848999456
aF-1.9482578688634453e-07
aF-1.2027691910653562e-09
aF-6.1900465825728244e-15
aF-5.7859339598940609e-16
aF-5.9166447881532787e-08
aF-4.1818783783601055e-14
aF-2.1214200553374677e-11
aF-1.66977271480309e-07
aF-6.9574506173043467e-13
aF-0.00015885257731436265
aF-1.7329819287048431e-15
aF-7.1894331587872036e-11
aF-4.0152560739287184e-13
aF-4.0992327893611405e-14
aF-1.1421932924993545e-11
aF-4.6980660592296933e-15
aF-2.0992731981547386e-12
aF-6.3555306774451691e-15
aF-1.5150340898356061e-13
aF-2.8643429387058503e-14
aF-9.14183874045055e-17
aF-2.266310273866116e-09
aF-7.5879126087330772e-06
aF-1.8080651762267788e-13
aF-1.086874378761135e-11
aF-7.6004618514137091e-15
aF-3.3517377760691457e-06
aF-5.3640151097068838e-15
aF-1.8797048575404241e-15
aF-4.5676638979695385e-13
aF-9.2857257912322448e-10
aF-2.1608040352490897e-17
aF-4.274507415609997e-12
aF-1.7551287858875721e-11
aF-6.4615674374668339e-13
aF-1.362542946455046e-09
aF-1.4466836412307198e-12
aF-5.5439293867853963e-10
aF-1.2413043367295564e-14
aF-7.2365145219879426e-17
aF-8.6907315671645309e-10
aF-1.7692406552509578e-18
aF5.3596744800325673e-11
aF5.8340474283729171e-11
aF3.2841589949619151e-09
aF2.6518450015388097e-10
aF6.8486262084473994e-10
aF1.231446284447e-09
aF3.1305585795534747e-10
aF2.0942959427948568e-11
aF1.0905783827498842e-10
aF2.4763871042592608e-10
aF3.395906094466235e-10
aF6.7177610466886494e-11
aF8.7894471318021834e-06
aF6.0663193451673942e-05
aF2.7302367734569461e-08
aF5.2841185861683177e-09
aF3.3596666596075622e-09
aF5.1690050872054726e-10
aF4.104682691063337e-08
aF4.7127663250600414e-08
aF7.3864495167825196e-11
aF5.4037656316798916e-11
aF1.7900081567816266e-08
aF1.3500419329930174e-05
aF8.0023945134115942e-06
aF2.5354968345797158e-05
aF3.6417593592194597e-11
aF1.6544358232871756e-10
aF2.9750868704632177e-09
aF3.2213934898713144e-05
aF0.0010137685292019431
aF1.8037245465524631e-06
aF7.1495186574709426e-10
aF1.377214274754232e-08
aF6.9870054824645736e-11
aF9.4128869490022453e-08
aF3.0729439550097279e-11
aF6.9766362004648201e-11
aF3.604825423612896e-10
aF1.7374286626600859e-10
aF1.1112204883121842e-08
aF0.027726881316717508
aF3.0936342897906317e-06
aF2.2285757332307341e-08
aF2.3748453074114424e-09
aF4.3120972685895682e-05
aF1.1589770605733742e-10
aF2.7002864287041698e-11
aF1.0634542702072734e-15
aF1.8370605824512057e-10
aF1.8098496573151084e-10
aF2.9451751090853242e-09
aF7.3958156310353178e-10
aF4.4500038962644289e-11
aF2.0887495826554539e-07
aF1.8444782362724246e-10
aF6.1664432029882696e-09
aF7.2617384033175767e-10
aF1.5579484485490043e-06
aF1.8270578425128385e-10
aF2.4237883184502789e-07
aF1.819698063753944e-05
aF2.5121635386193406e-09
aF3.1278963266865606e-10
aF6.2214630955711475e-10
aF1.4977776754192725e-08
aF7.1449079441724474e-06
aF1.5457078728674351e-05
aF2.2555165747426517e-10
aF8.5589596960960358e-10
aF3.1197359428988483e-10
aF3.2826735350289274e-05
aF9.0763048782121088e-06
aF0.00018016217526213503
aF9.4553286613733282e-11
aF3.0243481943448367e-11
aF9.2864010002926936e-08
aF3.4099890262984588e-05
aF9.3347941982394497e-05
aF1.6216110171056306e-06
aF4.6588074752864411e-09
aF5.7657741465177956e-10
aF6.5438368385606922e-12
aF7.6857600474358672e-05
aF3.3109455029743015e-10
aF4.3666348689864109e-10
aF5.3664458623244997e-10
aF1.0492266507192396e-11
aF9.0123915177187437e-09
aF2.5371559196996761e-05
aF0.037956202124083592
aF9.4009068111011331e-08
aF9.4630260446624483e-06
aF3.1083249097772587e-08
aF2.0079463498071424e-09
aF1.2604802740463096e-09
aF-1.2466770716819868e-16
aF0.00045091618558034877
aF7.1622897545571502e-11
aF3.5193053731851616e-06
aF1.5238118076214441e-08
aF2.3274745688990805e-13
aF3.670513619350869e-07
aF2.943950086932795e-08
aF-4.9377459840016686e-07
aF-4.4679258738974914e-17
aF1.9199087341683056e-07
aF-2.8472215661016067e-13
aF2.4716799325235586e-10
aF1.5762273223997327e-11
aF-1.0318737778656987e-06
aF1.8694223881341569e-11
aF-7.5302208174395661e-11
aF5.2509272379253854e-13
aF1.8360284771730907e-13
aF5.367304342415642e-11
aF-1.8081519888202649e-15
aF1.8415651914687727e-09
aF1.4041068870475461e-13
aF-1.1074296717299487e-08
aF4.97574096241751e-06
aF1.4545932330816945e-13
aF2.7725434440159402e-08
aF-4.2029159635149544e-15
aF1.7578296221293682e-10
aF-2.9227678141221354e-10
aF5.7364411357631441e-06
aF1.102548874807274e-11
aF6.1477784953887135e-11
aF8.8515760112072175e-13
aF-1.108481068695505e-12
aF1.0839323964263212e-10
aF1.0863920865750999e-13
aF1.3420744660797187e-12
aF-7.6663719015572576e-16
aF1.1599416449454443e-14
aF3.18568457641728e-11
aF3.7200932560752713e-15
aF1.2803989413295572e-08
aF0.038131852938237558
aF4.3136502494286008e-13
aF4.7782808956110425e-12
aF8.7411118089177509e-12
aF1.4530402522426616e-09
aF2.6914604816997285e-11
aF8.7068690637092633e-10
aF1.5844069978748871e-11
aF8.1500723807755246e-08
aF8.6800632640094364e-10
aF5.0662189765176847e-11
aF2.0520182097670247e-08
aF4.7197595617575498e-11
aF6.279762575019063e-09
aF2.6117086458169736e-11
aF5.3363990591345158e-11
aF8.3411083156640063e-12
aF2.1906965049395417e-09
aF1.132344886060519e-10
aF1.0871251706978733e-11
aF3.0387880223947261e-07
aF9.8240989126594445e-11
aF1.106127482827654e-11
aF6.0597312339061557e-10
aF8.4073366786503388e-10
aF4.3368581494206071e-11
aF4.0414348937867011e-10
aF4.8144624554073908e-10
aF1.6454651886269236e-07
aF4.8509044529841996e-07
aF1.1882521962657013e-06
aF1.3551349384775475e-12
aF6.6027343603192912e-11
aF8.1964978266032583e-05
aF1.7908955744039311e-06
aF4.7802197101989034e-08
aF8.39950425354913e-09
aF3.7360378357455902e-09
aF7.9741418371536614e-10
aF1.3686005363116461e-10
aF1.9727968952889083e-08
aF7.5295070250042325e-11
aF1.3163393550328886e-12
aF6.1392033403210105e-11
aF4.449405853953745e-12
aF5.8208519141629982e-07
aF5.9327919305417321e-06
aF1.272402536885096e-06
aF1.6009013906372855e-10
aF0.038489520823401152
aF2.2302637558818568e-11
aF5.9518810552649987e-10
aF1.1134679698991075e-13
aF1.1972614143008361e-15
aF1.0049618738849431e-11
aF3.4484855885877757e-14
aF1.4820356584670885e-08
aF1.1048156480816387e-13
aF4.2130344535779699e-14
aF2.4104674082719907e-15
aF3.1404937985857966e-17
aF8.9653390920491647e-14
aF6.7328664379552669e-07
aF3.3570140525843695e-11
aF3.1719681866464431e-14
aF8.9477161355714438e-15
aF6.8552721947709616e-15
aF6.8981865534843588e-10
aF1.65628782528155e-17
aF2.6356592757754737e-14
aF1.7141050125434312e-09
aF8.4568584403124169e-14
aF2.4609634001498597e-15
aF3.1685149745944327e-14
aF1.4656087866107348e-09
aF4.4609615747311446e-12
aF1.1118764056851918e-12
aF1.7592861445311943e-10
aF7.0161359305010904e-06
aF8.4451676777229284e-07
aF1.2240672140006639e-13
aF3.3732094241914259e-13
aF7.9878485810807783e-14
aF1.2550689557189964e-09
aF3.0869014908735825e-15
aF1.7439781905464419e-15
aF9.0765074409302429e-18
aF5.0698554596003888e-13
aF2.6619249082269424e-14
aF1.6188330141140686e-10
aF1.4361407340439936e-05
aF2.1554409461403799e-13
aF3.5101900508690994e-15
aF7.6123165933464501e-15
aF4.3421730093107139e-12
aF7.0415816662362999e-16
aF2.2443466877140799e-11
aF2.8128534249247493e-14
aF0.0012219258366946684
aF1.1669252357992317e-10
aF2.6429901170032064e-11
aF-1.0139710919200777e-16
aF-1.621688183855396e-14
aF-1.7402548948702513e-12
aF-1.0277260650657971e-13
aF-2.1168672171012972e-13
aF-7.6542277843128956e-16
aF3.3956167191546147e-10
aF-2.7604764935213433e-12
aF-2.8205797457450307e-14
aF-0.0074434178697969774
aF-2.4749112901699931e-11
aF-1.0731386973028569e-09
aF-6.4460279832327852e-14
aF-6.3930144261438121e-11
aF1.820305751908348e-13
aF-1.6643806881632182e-10
aF-3.2086513303162687e-14
aF-2.017061672123205e-07
aF1.475090650988184e-05
aF-1.8370219990763227e-14
aF-8.1490595671848516e-09
aF-1.0294430252480819e-13
aF-6.780825572934592e-11
aF-3.9974112630454218e-12
aF-1.2520498066344171e-10
aF-6.8069368718865303e-10
aF-0.00082240077728946981
aF-4.4823560561036594e-06
aF-6.8310900645631647e-13
aF3.9359093634822328e-14
aF-9.1605227397375471e-11
aF-7.2088213046658115e-12
aF-3.6065713213263429e-13
aF-6.1852622440873573e-13
aF-4.3659789516134038e-15
aF-2.6108887491007138e-13
aF-0.00029260666926746154
aF-6.7587655283453491e-05
aF-9.180518573770559e-05
aF-8.9660432386407766e-10
aF-1.641384996733067e-14
aF-5.3324346173653081e-13
aF-2.1204554709653978e-09
aF-2.7120736497308663e-10
aF-1.8553973313642581e-13
aF-5.0969506346118375e-12
aF-0.020073097241215764
aF-3.2160014632314427e-05
aF4.0927700740682713e-24
aF1.6326362164783915e-18
aF5.8120934880646012e-14
aF6.5902237010135428e-15
aF3.6290364913518554e-18
aF8.1022482876082902e-18
aF2.1610065979672243e-18
aF4.677867662478546e-13
aF1.1842877544964932e-18
aF8.3053511729913686e-16
aF5.8311054460381031e-08
aF1.2869966984345165e-14
aF2.0085829754927089e-10
aF5.8271699418000573e-12
aF8.1880866508788072e-09
aF1.5704687536984742e-19
aF6.3935642392358925e-19
aF1.7890435724095565e-13
aF1.2127526393162818e-14
aF1.4476964548213934e-12
aF7.5978767652965608e-13
aF1.4807141778773524e-16
aF4.4420653668822916e-13
aF4.3385558179154505e-12
aF1.2610300871383898e-14
aF5.7192908256277382e-14
aF1.0249094786993525e-11
aF4.444418952750143e-17
aF4.7539540777474342e-16
aF1.2845852375043412e-17
aF1.4729299819947469e-15
aF8.941986504401348e-18
aF7.6766833084946873e-17
aF5.639297843651966e-14
aF1.822177045590164e-16
aF3.8785069475003419e-16
aF1.0574159720381146e-14
aF1.2654189460313086e-09
aF4.7780011661431417e-17
aF4.0175903681091286e-11
aF2.1693213152544685e-16
aF8.0677161670881818e-15
aF1.1721725747832929e-12
aF6.1557748998331751e-09
aF9.8315262123243837e-19
aF9.2570776353817639e-12
aF2.0643938272606841e-10
aF1.2555994771236351e-05
a.